Archive member included to satisfy reference by file (symbol)

/usr/bin/../lib/gcc/arm-none-eabi/7.3.1/../../../../arm-none-eabi/lib/thumb/v7-m/libstdc++_nano.a(eh_call.o)
                              obj/memory_management_operators.o (__cxa_call_unexpected)
/usr/bin/../lib/gcc/arm-none-eabi/7.3.1/../../../../arm-none-eabi/lib/thumb/v7-m/libstdc++_nano.a(eh_personality.o)
                              obj/blink_app.o (__gxx_personality_v0)
/usr/bin/../lib/gcc/arm-none-eabi/7.3.1/../../../../arm-none-eabi/lib/thumb/v7-m/libstdc++_nano.a(eh_arm.o)
                              obj/blink_app.o (__cxa_end_cleanup)
/usr/bin/../lib/gcc/arm-none-eabi/7.3.1/../../../../arm-none-eabi/lib/thumb/v7-m/libstdc++_nano.a(eh_catch.o)
                              /usr/bin/../lib/gcc/arm-none-eabi/7.3.1/../../../../arm-none-eabi/lib/thumb/v7-m/libstdc++_nano.a(eh_call.o) (__cxa_begin_catch)
/usr/bin/../lib/gcc/arm-none-eabi/7.3.1/../../../../arm-none-eabi/lib/thumb/v7-m/libstdc++_nano.a(guard.o)
                              obj/application.o (__cxa_guard_acquire)
/usr/bin/../lib/gcc/arm-none-eabi/7.3.1/../../../../arm-none-eabi/lib/thumb/v7-m/libstdc++_nano.a(atexit_arm.o)
                              obj/common.o (__aeabi_atexit)
/usr/bin/../lib/gcc/arm-none-eabi/7.3.1/../../../../arm-none-eabi/lib/thumb/v7-m/libstdc++_nano.a(class_type_info.o)
                              obj/task.o (vtable for __cxxabiv1::__class_type_info)
/usr/bin/../lib/gcc/arm-none-eabi/7.3.1/../../../../arm-none-eabi/lib/thumb/v7-m/libstdc++_nano.a(eh_terminate.o)
                              /usr/bin/../lib/gcc/arm-none-eabi/7.3.1/../../../../arm-none-eabi/lib/thumb/v7-m/libstdc++_nano.a(eh_call.o) (__cxxabiv1::__terminate(void (*)()))
/usr/bin/../lib/gcc/arm-none-eabi/7.3.1/../../../../arm-none-eabi/lib/thumb/v7-m/libstdc++_nano.a(eh_unex_handler.o)
                              /usr/bin/../lib/gcc/arm-none-eabi/7.3.1/../../../../arm-none-eabi/lib/thumb/v7-m/libstdc++_nano.a(eh_terminate.o) (__cxxabiv1::__unexpected_handler)
/usr/bin/../lib/gcc/arm-none-eabi/7.3.1/../../../../arm-none-eabi/lib/thumb/v7-m/libstdc++_nano.a(eh_term_handler.o)
                              /usr/bin/../lib/gcc/arm-none-eabi/7.3.1/../../../../arm-none-eabi/lib/thumb/v7-m/libstdc++_nano.a(eh_terminate.o) (__cxxabiv1::__terminate_handler)
/usr/bin/../lib/gcc/arm-none-eabi/7.3.1/../../../../arm-none-eabi/lib/thumb/v7-m/libstdc++_nano.a(eh_globals.o)
                              /usr/bin/../lib/gcc/arm-none-eabi/7.3.1/../../../../arm-none-eabi/lib/thumb/v7-m/libstdc++_nano.a(eh_catch.o) (__cxa_get_globals_fast)
/usr/bin/../lib/gcc/arm-none-eabi/7.3.1/../../../../arm-none-eabi/lib/thumb/v7-m/libstdc++_nano.a(eh_aux_runtime.o)
                              obj/buffer.o (__cxa_throw_bad_array_new_length)
/usr/bin/../lib/gcc/arm-none-eabi/7.3.1/../../../../arm-none-eabi/lib/thumb/v7-m/libstdc++_nano.a(si_class_type_info.o)
                              obj/blink_app.o (vtable for __cxxabiv1::__si_class_type_info)
/usr/bin/../lib/gcc/arm-none-eabi/7.3.1/../../../../arm-none-eabi/lib/thumb/v7-m/libstdc++_nano.a(del_ops.o)
                              /usr/bin/../lib/gcc/arm-none-eabi/7.3.1/../../../../arm-none-eabi/lib/thumb/v7-m/libstdc++_nano.a(class_type_info.o) (operator delete(void*, unsigned int))
/usr/bin/../lib/gcc/arm-none-eabi/7.3.1/../../../../arm-none-eabi/lib/thumb/v7-m/libstdc++_nano.a(eh_exception.o)
                              /usr/bin/../lib/gcc/arm-none-eabi/7.3.1/../../../../arm-none-eabi/lib/thumb/v7-m/libstdc++_nano.a(eh_arm.o) (typeinfo for __cxxabiv1::__forced_unwind)
/usr/bin/../lib/gcc/arm-none-eabi/7.3.1/../../../../arm-none-eabi/lib/thumb/v7-m/libstdc++_nano.a(tinfo.o)
                              /usr/bin/../lib/gcc/arm-none-eabi/7.3.1/../../../../arm-none-eabi/lib/thumb/v7-m/libstdc++_nano.a(class_type_info.o) (std::type_info::~type_info())
/usr/bin/../lib/gcc/arm-none-eabi/7.3.1/thumb/v7-m/libgcc.a(_arm_addsubdf3.o)
                              obj/common.o (__aeabi_dadd)
/usr/bin/../lib/gcc/arm-none-eabi/7.3.1/thumb/v7-m/libgcc.a(_arm_muldivdf3.o)
                              obj/common.o (__aeabi_dmul)
/usr/bin/../lib/gcc/arm-none-eabi/7.3.1/thumb/v7-m/libgcc.a(_arm_fixdfsi.o)
                              obj/common.o (__aeabi_d2iz)
/usr/bin/../lib/gcc/arm-none-eabi/7.3.1/thumb/v7-m/libgcc.a(unwind-arm.o)
                              obj/blink_app.o (__aeabi_unwind_cpp_pr0)
/usr/bin/../lib/gcc/arm-none-eabi/7.3.1/thumb/v7-m/libgcc.a(libunwind.o)
                              /usr/bin/../lib/gcc/arm-none-eabi/7.3.1/thumb/v7-m/libgcc.a(unwind-arm.o) (restore_core_regs)
/usr/bin/../lib/gcc/arm-none-eabi/7.3.1/thumb/v7-m/libgcc.a(pr-support.o)
                              /usr/bin/../lib/gcc/arm-none-eabi/7.3.1/thumb/v7-m/libgcc.a(unwind-arm.o) (__gnu_unwind_execute)
/usr/bin/../lib/gcc/arm-none-eabi/7.3.1/../../../../arm-none-eabi/lib/thumb/v7-m/libg_nano.a(lib_a-cxa_atexit.o)
                              /usr/bin/../lib/gcc/arm-none-eabi/7.3.1/../../../../arm-none-eabi/lib/thumb/v7-m/libstdc++_nano.a(atexit_arm.o) (__cxa_atexit)
/usr/bin/../lib/gcc/arm-none-eabi/7.3.1/../../../../arm-none-eabi/lib/thumb/v7-m/libg_nano.a(lib_a-errno.o)
                              obj/_syscalls.o (__errno)
/usr/bin/../lib/gcc/arm-none-eabi/7.3.1/../../../../arm-none-eabi/lib/thumb/v7-m/libg_nano.a(lib_a-impure.o)
                              /usr/bin/../lib/gcc/arm-none-eabi/7.3.1/../../../../arm-none-eabi/lib/thumb/v7-m/libg_nano.a(lib_a-errno.o) (_impure_ptr)
/usr/bin/../lib/gcc/arm-none-eabi/7.3.1/../../../../arm-none-eabi/lib/thumb/v7-m/libg_nano.a(lib_a-malloc.o)
                              obj/memory_manager.o (malloc)
/usr/bin/../lib/gcc/arm-none-eabi/7.3.1/../../../../arm-none-eabi/lib/thumb/v7-m/libg_nano.a(lib_a-memcmp.o)
                              obj/buffer.o (memcmp)
/usr/bin/../lib/gcc/arm-none-eabi/7.3.1/../../../../arm-none-eabi/lib/thumb/v7-m/libg_nano.a(lib_a-memcpy-stub.o)
                              obj/common.o (memcpy)
/usr/bin/../lib/gcc/arm-none-eabi/7.3.1/../../../../arm-none-eabi/lib/thumb/v7-m/libg_nano.a(lib_a-nano-freer.o)
                              /usr/bin/../lib/gcc/arm-none-eabi/7.3.1/../../../../arm-none-eabi/lib/thumb/v7-m/libg_nano.a(lib_a-malloc.o) (_free_r)
/usr/bin/../lib/gcc/arm-none-eabi/7.3.1/../../../../arm-none-eabi/lib/thumb/v7-m/libg_nano.a(lib_a-nano-mallocr.o)
                              /usr/bin/../lib/gcc/arm-none-eabi/7.3.1/../../../../arm-none-eabi/lib/thumb/v7-m/libg_nano.a(lib_a-malloc.o) (_malloc_r)
/usr/bin/../lib/gcc/arm-none-eabi/7.3.1/../../../../arm-none-eabi/lib/thumb/v7-m/libg_nano.a(lib_a-on_exit_args.o)
                              /usr/bin/../lib/gcc/arm-none-eabi/7.3.1/../../../../arm-none-eabi/lib/thumb/v7-m/libg_nano.a(lib_a-cxa_atexit.o) (__on_exit_args)
/usr/bin/../lib/gcc/arm-none-eabi/7.3.1/../../../../arm-none-eabi/lib/thumb/v7-m/libg_nano.a(lib_a-rand.o)
                              obj/common.o (rand)
/usr/bin/../lib/gcc/arm-none-eabi/7.3.1/../../../../arm-none-eabi/lib/thumb/v7-m/libg_nano.a(lib_a-sbrkr.o)
                              /usr/bin/../lib/gcc/arm-none-eabi/7.3.1/../../../../arm-none-eabi/lib/thumb/v7-m/libg_nano.a(lib_a-nano-mallocr.o) (_sbrk_r)
/usr/bin/../lib/gcc/arm-none-eabi/7.3.1/../../../../arm-none-eabi/lib/thumb/v7-m/libg_nano.a(lib_a-strcmp.o)
                              /usr/bin/../lib/gcc/arm-none-eabi/7.3.1/../../../../arm-none-eabi/lib/thumb/v7-m/libstdc++_nano.a(tinfo.o) (strcmp)
/usr/bin/../lib/gcc/arm-none-eabi/7.3.1/../../../../arm-none-eabi/lib/thumb/v7-m/libg_nano.a(lib_a-strcpy.o)
                              obj/task.o (strcpy)
/usr/bin/../lib/gcc/arm-none-eabi/7.3.1/../../../../arm-none-eabi/lib/thumb/v7-m/libg_nano.a(lib_a-strlen.o)
                              obj/common.o (strlen)
/usr/bin/../lib/gcc/arm-none-eabi/7.3.1/../../../../arm-none-eabi/lib/thumb/v7-m/libg_nano.a(lib_a-vsnprintf.o)
                              obj/common.o (vsnprintf)
/usr/bin/../lib/gcc/arm-none-eabi/7.3.1/../../../../arm-none-eabi/lib/thumb/v7-m/libg_nano.a(lib_a-mlock.o)
                              /usr/bin/../lib/gcc/arm-none-eabi/7.3.1/../../../../arm-none-eabi/lib/thumb/v7-m/libg_nano.a(lib_a-nano-freer.o) (__malloc_lock)
/usr/bin/../lib/gcc/arm-none-eabi/7.3.1/../../../../arm-none-eabi/lib/thumb/v7-m/libg_nano.a(lib_a-nano-svfprintf.o)
                              /usr/bin/../lib/gcc/arm-none-eabi/7.3.1/../../../../arm-none-eabi/lib/thumb/v7-m/libg_nano.a(lib_a-vsnprintf.o) (_svfprintf_r)
/usr/bin/../lib/gcc/arm-none-eabi/7.3.1/../../../../arm-none-eabi/lib/thumb/v7-m/libg_nano.a(lib_a-nano-vfprintf_i.o)
                              /usr/bin/../lib/gcc/arm-none-eabi/7.3.1/../../../../arm-none-eabi/lib/thumb/v7-m/libg_nano.a(lib_a-nano-svfprintf.o) (_printf_i)
/usr/bin/../lib/gcc/arm-none-eabi/7.3.1/../../../../arm-none-eabi/lib/thumb/v7-m/libg_nano.a(lib_a-memchr-stub.o)
                              /usr/bin/../lib/gcc/arm-none-eabi/7.3.1/../../../../arm-none-eabi/lib/thumb/v7-m/libg_nano.a(lib_a-nano-svfprintf.o) (memchr)
/usr/bin/../lib/gcc/arm-none-eabi/7.3.1/../../../../arm-none-eabi/lib/thumb/v7-m/libg_nano.a(lib_a-memmove.o)
                              /usr/bin/../lib/gcc/arm-none-eabi/7.3.1/../../../../arm-none-eabi/lib/thumb/v7-m/libg_nano.a(lib_a-nano-svfprintf.o) (memmove)
/usr/bin/../lib/gcc/arm-none-eabi/7.3.1/../../../../arm-none-eabi/lib/thumb/v7-m/libg_nano.a(lib_a-nano-reallocr.o)
                              /usr/bin/../lib/gcc/arm-none-eabi/7.3.1/../../../../arm-none-eabi/lib/thumb/v7-m/libg_nano.a(lib_a-nano-svfprintf.o) (_realloc_r)
/usr/bin/../lib/gcc/arm-none-eabi/7.3.1/../../../../arm-none-eabi/lib/thumb/v7-m/libg_nano.a(lib_a-nano-msizer.o)
                              /usr/bin/../lib/gcc/arm-none-eabi/7.3.1/../../../../arm-none-eabi/lib/thumb/v7-m/libg_nano.a(lib_a-nano-reallocr.o) (_malloc_usable_size_r)

Allocating common symbols
Common symbol       size              file

errno               0x4               obj/_syscalls.o

Discarded input sections

 .group         0x0000000000000000       0x18 obj/blink_app.o
 .group         0x0000000000000000       0x2c obj/blink_app.o
 .group         0x0000000000000000       0x2c obj/blink_app.o
 .group         0x0000000000000000        0x8 obj/blink_app.o
 .group         0x0000000000000000        0xc obj/blink_app.o
 .group         0x0000000000000000        0xc obj/blink_app.o
 .group         0x0000000000000000        0xc obj/blink_app.o
 .group         0x0000000000000000        0xc obj/blink_app.o
 .group         0x0000000000000000        0xc obj/blink_app.o
 .group         0x0000000000000000        0xc obj/blink_app.o
 .group         0x0000000000000000        0xc obj/blink_app.o
 .group         0x0000000000000000        0xc obj/blink_app.o
 .group         0x0000000000000000        0xc obj/blink_app.o
 .group         0x0000000000000000        0xc obj/blink_app.o
 .group         0x0000000000000000        0xc obj/blink_app.o
 .group         0x0000000000000000        0xc obj/blink_app.o
 .group         0x0000000000000000        0xc obj/blink_app.o
 .group         0x0000000000000000        0xc obj/blink_app.o
 .group         0x0000000000000000        0xc obj/blink_app.o
 .group         0x0000000000000000        0xc obj/blink_app.o
 .group         0x0000000000000000        0xc obj/blink_app.o
 .group         0x0000000000000000        0xc obj/blink_app.o
 .group         0x0000000000000000        0xc obj/blink_app.o
 .group         0x0000000000000000        0xc obj/blink_app.o
 .group         0x0000000000000000        0xc obj/blink_app.o
 .group         0x0000000000000000        0xc obj/blink_app.o
 .group         0x0000000000000000        0xc obj/blink_app.o
 .group         0x0000000000000000        0xc obj/blink_app.o
 .group         0x0000000000000000        0xc obj/blink_app.o
 .group         0x0000000000000000        0xc obj/blink_app.o
 .group         0x0000000000000000        0xc obj/blink_app.o
 .group         0x0000000000000000        0xc obj/blink_app.o
 .group         0x0000000000000000        0xc obj/blink_app.o
 .group         0x0000000000000000        0xc obj/blink_app.o
 .group         0x0000000000000000        0xc obj/blink_app.o
 .group         0x0000000000000000        0xc obj/blink_app.o
 .group         0x0000000000000000        0xc obj/blink_app.o
 .group         0x0000000000000000        0xc obj/blink_app.o
 .group         0x0000000000000000        0xc obj/blink_app.o
 .group         0x0000000000000000        0xc obj/blink_app.o
 .group         0x0000000000000000        0xc obj/blink_app.o
 .group         0x0000000000000000        0xc obj/blink_app.o
 .group         0x0000000000000000        0xc obj/blink_app.o
 .group         0x0000000000000000        0xc obj/blink_app.o
 .group         0x0000000000000000        0xc obj/blink_app.o
 .group         0x0000000000000000        0xc obj/blink_app.o
 .group         0x0000000000000000        0xc obj/main.o
 .group         0x0000000000000000        0xc obj/main.o
 .group         0x0000000000000000        0xc obj/main.o
 .group         0x0000000000000000        0xc obj/main.o
 .group         0x0000000000000000        0xc obj/main.o
 .group         0x0000000000000000        0xc obj/main.o
 .group         0x0000000000000000        0xc obj/main.o
 .group         0x0000000000000000        0xc obj/main.o
 .group         0x0000000000000000        0xc obj/main.o
 .group         0x0000000000000000        0xc obj/main.o
 .group         0x0000000000000000        0xc obj/main.o
 .group         0x0000000000000000        0xc obj/main.o
 .group         0x0000000000000000        0xc obj/main.o
 .group         0x0000000000000000        0xc obj/main.o
 .group         0x0000000000000000        0xc obj/main.o
 .group         0x0000000000000000        0xc obj/main.o
 .group         0x0000000000000000        0xc obj/main.o
 .group         0x0000000000000000        0xc obj/main.o
 .group         0x0000000000000000        0xc obj/main.o
 .group         0x0000000000000000        0xc obj/main.o
 .group         0x0000000000000000        0xc obj/main.o
 .group         0x0000000000000000        0xc obj/main.o
 .group         0x0000000000000000        0xc obj/main.o
 .group         0x0000000000000000        0xc obj/main.o
 .group         0x0000000000000000        0xc obj/main.o
 .group         0x0000000000000000        0xc obj/main.o
 .group         0x0000000000000000        0xc obj/main.o
 .group         0x0000000000000000        0xc obj/main.o
 .group         0x0000000000000000        0xc obj/main.o
 .group         0x0000000000000000        0xc obj/main.o
 .group         0x0000000000000000        0xc obj/main.o
 .group         0x0000000000000000        0xc obj/main.o
 .group         0x0000000000000000        0xc obj/main.o
 .group         0x0000000000000000        0xc obj/main.o
 .group         0x0000000000000000        0xc obj/main.o
 .group         0x0000000000000000        0xc obj/main.o
 .group         0x0000000000000000        0xc obj/main.o
 .group         0x0000000000000000        0xc obj/main.o
 .debug_macro   0x0000000000000000      0xb26 obj/main.o
 .debug_macro   0x0000000000000000       0x1c obj/main.o
 .debug_macro   0x0000000000000000       0x22 obj/main.o
 .debug_macro   0x0000000000000000       0x8e obj/main.o
 .debug_macro   0x0000000000000000       0x51 obj/main.o
 .debug_macro   0x0000000000000000       0xef obj/main.o
 .debug_macro   0x0000000000000000       0x6a obj/main.o
 .debug_macro   0x0000000000000000      0x1df obj/main.o
 .debug_macro   0x0000000000000000       0x5e obj/main.o
 .debug_macro   0x0000000000000000      0x17b obj/main.o
 .debug_macro   0x0000000000000000      0x353 obj/main.o
 .debug_macro   0x0000000000000000       0x25 obj/main.o
 .debug_macro   0x0000000000000000       0xee obj/main.o
 .debug_macro   0x0000000000000000       0x18 obj/main.o
 .debug_macro   0x0000000000000000       0x35 obj/main.o
 .debug_macro   0x0000000000000000       0x34 obj/main.o
 .debug_macro   0x0000000000000000       0x58 obj/main.o
 .debug_macro   0x0000000000000000       0x1f obj/main.o
 .debug_macro   0x0000000000000000       0x43 obj/main.o
 .debug_macro   0x0000000000000000       0x20 obj/main.o
 .debug_macro   0x0000000000000000      0x18e obj/main.o
 .debug_macro   0x0000000000000000       0x10 obj/main.o
 .debug_macro   0x0000000000000000       0x35 obj/main.o
 .debug_macro   0x0000000000000000       0x16 obj/main.o
 .debug_macro   0x0000000000000000       0x58 obj/main.o
 .debug_macro   0x0000000000000000       0x22 obj/main.o
 .debug_macro   0x0000000000000000       0x29 obj/main.o
 .debug_macro   0x0000000000000000       0x10 obj/main.o
 .debug_macro   0x0000000000000000       0xc4 obj/main.o
 .debug_macro   0x0000000000000000       0x22 obj/main.o
 .debug_macro   0x0000000000000000       0x3b obj/main.o
 .debug_macro   0x0000000000000000       0x34 obj/main.o
 .debug_macro   0x0000000000000000      0xcb4 obj/main.o
 .debug_macro   0x0000000000000000     0x1dde obj/main.o
 .debug_macro   0x0000000000000000       0x9e obj/main.o
 .debug_macro   0x0000000000000000       0xed obj/main.o
 .debug_macro   0x0000000000000000      0x542 obj/main.o
 .debug_macro   0x0000000000000000       0x16 obj/main.o
 .group         0x0000000000000000        0xc obj/common.o
 .group         0x0000000000000000        0xc obj/common.o
 .group         0x0000000000000000        0xc obj/common.o
 .group         0x0000000000000000        0xc obj/common.o
 .group         0x0000000000000000        0xc obj/common.o
 .group         0x0000000000000000        0xc obj/common.o
 .group         0x0000000000000000        0xc obj/common.o
 .group         0x0000000000000000        0xc obj/common.o
 .group         0x0000000000000000        0xc obj/common.o
 .group         0x0000000000000000        0xc obj/common.o
 .group         0x0000000000000000        0xc obj/common.o
 .group         0x0000000000000000        0xc obj/common.o
 .group         0x0000000000000000        0xc obj/common.o
 .group         0x0000000000000000        0xc obj/common.o
 .group         0x0000000000000000        0xc obj/common.o
 .group         0x0000000000000000        0xc obj/common.o
 .group         0x0000000000000000        0xc obj/common.o
 .group         0x0000000000000000        0xc obj/common.o
 .group         0x0000000000000000        0xc obj/common.o
 .group         0x0000000000000000        0xc obj/common.o
 .group         0x0000000000000000        0xc obj/common.o
 .group         0x0000000000000000        0xc obj/common.o
 .group         0x0000000000000000        0xc obj/common.o
 .group         0x0000000000000000        0xc obj/common.o
 .group         0x0000000000000000        0xc obj/common.o
 .group         0x0000000000000000        0xc obj/common.o
 .group         0x0000000000000000        0xc obj/common.o
 .group         0x0000000000000000        0xc obj/common.o
 .group         0x0000000000000000        0xc obj/common.o
 .group         0x0000000000000000        0xc obj/common.o
 .group         0x0000000000000000        0xc obj/common.o
 .group         0x0000000000000000        0xc obj/common.o
 .group         0x0000000000000000        0xc obj/common.o
 .group         0x0000000000000000        0xc obj/common.o
 .group         0x0000000000000000        0xc obj/common.o
 .group         0x0000000000000000        0xc obj/common.o
 .group         0x0000000000000000        0xc obj/common.o
 .group         0x0000000000000000        0xc obj/common.o
 .group         0x0000000000000000        0xc obj/common.o
 .group         0x0000000000000000        0xc obj/common.o
 .group         0x0000000000000000        0xc obj/common.o
 .group         0x0000000000000000        0xc obj/common.o
 .group         0x0000000000000000        0xc obj/common.o
 .group         0x0000000000000000        0xc obj/common.o
 .group         0x0000000000000000        0xc obj/common.o
 .group         0x0000000000000000        0xc obj/common.o
 .group         0x0000000000000000        0xc obj/common.o
 .group         0x0000000000000000        0xc obj/common.o
 .group         0x0000000000000000        0xc obj/common.o
 .group         0x0000000000000000        0xc obj/common.o
 .group         0x0000000000000000        0xc obj/common.o
 .group         0x0000000000000000        0xc obj/common.o
 .group         0x0000000000000000        0xc obj/common.o
 .group         0x0000000000000000        0xc obj/common.o
 .group         0x0000000000000000        0xc obj/common.o
 .group         0x0000000000000000        0xc obj/common.o
 .group         0x0000000000000000        0xc obj/common.o
 .debug_macro   0x0000000000000000      0xb26 obj/common.o
 .debug_macro   0x0000000000000000       0x18 obj/common.o
 .debug_macro   0x0000000000000000       0x22 obj/common.o
 .debug_macro   0x0000000000000000       0x35 obj/common.o
 .debug_macro   0x0000000000000000       0x34 obj/common.o
 .debug_macro   0x0000000000000000       0x58 obj/common.o
 .debug_macro   0x0000000000000000       0x1f obj/common.o
 .debug_macro   0x0000000000000000       0x43 obj/common.o
 .debug_macro   0x0000000000000000       0x20 obj/common.o
 .debug_macro   0x0000000000000000      0x18e obj/common.o
 .debug_macro   0x0000000000000000      0x353 obj/common.o
 .debug_macro   0x0000000000000000       0x1c obj/common.o
 .debug_macro   0x0000000000000000       0xef obj/common.o
 .debug_macro   0x0000000000000000       0x6a obj/common.o
 .debug_macro   0x0000000000000000      0x1df obj/common.o
 .debug_macro   0x0000000000000000       0x35 obj/common.o
 .debug_macro   0x0000000000000000       0xee obj/common.o
 .debug_macro   0x0000000000000000       0x16 obj/common.o
 .debug_macro   0x0000000000000000       0x58 obj/common.o
 .debug_macro   0x0000000000000000       0x22 obj/common.o
 .debug_macro   0x0000000000000000       0x29 obj/common.o
 .debug_macro   0x0000000000000000       0x2e obj/common.o
 .debug_macro   0x0000000000000000       0x22 obj/common.o
 .debug_macro   0x0000000000000000       0x3b obj/common.o
 .debug_macro   0x0000000000000000       0x34 obj/common.o
 .debug_macro   0x0000000000000000      0xcb4 obj/common.o
 .debug_macro   0x0000000000000000     0x1dde obj/common.o
 .debug_macro   0x0000000000000000       0x19 obj/common.o
 .group         0x0000000000000000       0x14 obj/scheduler.o
 .group         0x0000000000000000       0x2c obj/scheduler.o
 .group         0x0000000000000000        0x8 obj/scheduler.o
 .group         0x0000000000000000        0xc obj/scheduler.o
 .group         0x0000000000000000        0xc obj/scheduler.o
 .group         0x0000000000000000        0xc obj/scheduler.o
 .group         0x0000000000000000        0xc obj/scheduler.o
 .group         0x0000000000000000        0xc obj/scheduler.o
 .group         0x0000000000000000        0xc obj/scheduler.o
 .group         0x0000000000000000        0xc obj/scheduler.o
 .group         0x0000000000000000        0xc obj/scheduler.o
 .group         0x0000000000000000        0xc obj/scheduler.o
 .group         0x0000000000000000        0xc obj/scheduler.o
 .group         0x0000000000000000        0xc obj/scheduler.o
 .group         0x0000000000000000        0xc obj/scheduler.o
 .group         0x0000000000000000        0xc obj/scheduler.o
 .group         0x0000000000000000        0xc obj/scheduler.o
 .group         0x0000000000000000        0xc obj/scheduler.o
 .group         0x0000000000000000        0xc obj/scheduler.o
 .group         0x0000000000000000        0xc obj/scheduler.o
 .group         0x0000000000000000        0xc obj/scheduler.o
 .group         0x0000000000000000        0xc obj/scheduler.o
 .group         0x0000000000000000        0xc obj/scheduler.o
 .group         0x0000000000000000        0xc obj/scheduler.o
 .group         0x0000000000000000        0xc obj/scheduler.o
 .group         0x0000000000000000        0xc obj/scheduler.o
 .group         0x0000000000000000        0xc obj/scheduler.o
 .group         0x0000000000000000        0xc obj/scheduler.o
 .group         0x0000000000000000        0xc obj/scheduler.o
 .group         0x0000000000000000        0xc obj/scheduler.o
 .group         0x0000000000000000        0xc obj/scheduler.o
 .group         0x0000000000000000        0xc obj/scheduler.o
 .group         0x0000000000000000        0xc obj/scheduler.o
 .group         0x0000000000000000        0xc obj/scheduler.o
 .group         0x0000000000000000        0xc obj/scheduler.o
 .group         0x0000000000000000        0xc obj/scheduler.o
 .group         0x0000000000000000        0xc obj/scheduler.o
 .group         0x0000000000000000        0xc obj/scheduler.o
 .group         0x0000000000000000        0xc obj/scheduler.o
 .group         0x0000000000000000        0xc obj/scheduler.o
 .debug_macro   0x0000000000000000      0xb26 obj/scheduler.o
 .debug_macro   0x0000000000000000       0x1c obj/scheduler.o
 .debug_macro   0x0000000000000000       0x22 obj/scheduler.o
 .debug_macro   0x0000000000000000       0x8e obj/scheduler.o
 .debug_macro   0x0000000000000000       0x51 obj/scheduler.o
 .debug_macro   0x0000000000000000       0xef obj/scheduler.o
 .debug_macro   0x0000000000000000       0x6a obj/scheduler.o
 .debug_macro   0x0000000000000000      0x1df obj/scheduler.o
 .debug_macro   0x0000000000000000       0x5e obj/scheduler.o
 .debug_macro   0x0000000000000000      0x17b obj/scheduler.o
 .debug_macro   0x0000000000000000      0x353 obj/scheduler.o
 .debug_macro   0x0000000000000000       0x25 obj/scheduler.o
 .debug_macro   0x0000000000000000       0xee obj/scheduler.o
 .debug_macro   0x0000000000000000       0x18 obj/scheduler.o
 .debug_macro   0x0000000000000000       0x35 obj/scheduler.o
 .debug_macro   0x0000000000000000       0x34 obj/scheduler.o
 .debug_macro   0x0000000000000000       0x58 obj/scheduler.o
 .debug_macro   0x0000000000000000       0x1f obj/scheduler.o
 .debug_macro   0x0000000000000000       0x43 obj/scheduler.o
 .debug_macro   0x0000000000000000       0x20 obj/scheduler.o
 .debug_macro   0x0000000000000000      0x18e obj/scheduler.o
 .debug_macro   0x0000000000000000       0x10 obj/scheduler.o
 .debug_macro   0x0000000000000000       0x35 obj/scheduler.o
 .debug_macro   0x0000000000000000       0x16 obj/scheduler.o
 .debug_macro   0x0000000000000000       0x58 obj/scheduler.o
 .debug_macro   0x0000000000000000       0x22 obj/scheduler.o
 .debug_macro   0x0000000000000000       0x29 obj/scheduler.o
 .debug_macro   0x0000000000000000       0x2e obj/scheduler.o
 .debug_macro   0x0000000000000000       0x22 obj/scheduler.o
 .debug_macro   0x0000000000000000       0x3b obj/scheduler.o
 .debug_macro   0x0000000000000000       0x34 obj/scheduler.o
 .debug_macro   0x0000000000000000      0xcb4 obj/scheduler.o
 .debug_macro   0x0000000000000000     0x1dde obj/scheduler.o
 .debug_macro   0x0000000000000000       0x19 obj/scheduler.o
 .group         0x0000000000000000       0x18 obj/task.o
 .group         0x0000000000000000        0x8 obj/task.o
 .group         0x0000000000000000        0xc obj/task.o
 .group         0x0000000000000000        0xc obj/task.o
 .group         0x0000000000000000        0xc obj/task.o
 .group         0x0000000000000000        0xc obj/task.o
 .group         0x0000000000000000        0xc obj/task.o
 .group         0x0000000000000000        0xc obj/task.o
 .group         0x0000000000000000        0xc obj/task.o
 .group         0x0000000000000000        0xc obj/task.o
 .group         0x0000000000000000        0xc obj/task.o
 .group         0x0000000000000000        0xc obj/task.o
 .group         0x0000000000000000        0xc obj/task.o
 .group         0x0000000000000000        0xc obj/task.o
 .group         0x0000000000000000        0xc obj/task.o
 .group         0x0000000000000000        0xc obj/task.o
 .group         0x0000000000000000        0xc obj/task.o
 .group         0x0000000000000000        0xc obj/task.o
 .group         0x0000000000000000        0xc obj/task.o
 .group         0x0000000000000000        0xc obj/task.o
 .group         0x0000000000000000        0xc obj/task.o
 .group         0x0000000000000000        0xc obj/task.o
 .group         0x0000000000000000        0xc obj/task.o
 .group         0x0000000000000000        0xc obj/task.o
 .group         0x0000000000000000        0xc obj/task.o
 .group         0x0000000000000000        0xc obj/task.o
 .group         0x0000000000000000        0xc obj/task.o
 .group         0x0000000000000000        0xc obj/task.o
 .group         0x0000000000000000        0xc obj/task.o
 .group         0x0000000000000000        0xc obj/task.o
 .group         0x0000000000000000        0xc obj/task.o
 .group         0x0000000000000000        0xc obj/task.o
 .group         0x0000000000000000        0xc obj/task.o
 .group         0x0000000000000000        0xc obj/task.o
 .group         0x0000000000000000        0xc obj/task.o
 .group         0x0000000000000000        0xc obj/task.o
 .group         0x0000000000000000        0xc obj/task.o
 .debug_macro   0x0000000000000000      0xb26 obj/task.o
 .debug_macro   0x0000000000000000       0x22 obj/task.o
 .debug_macro   0x0000000000000000       0x58 obj/task.o
 .debug_macro   0x0000000000000000       0x18 obj/task.o
 .debug_macro   0x0000000000000000       0x94 obj/task.o
 .debug_macro   0x0000000000000000       0x35 obj/task.o
 .debug_macro   0x0000000000000000       0x34 obj/task.o
 .debug_macro   0x0000000000000000      0x17b obj/task.o
 .debug_macro   0x0000000000000000       0x57 obj/task.o
 .debug_macro   0x0000000000000000       0x58 obj/task.o
 .debug_macro   0x0000000000000000       0x1f obj/task.o
 .debug_macro   0x0000000000000000       0x43 obj/task.o
 .debug_macro   0x0000000000000000       0x20 obj/task.o
 .debug_macro   0x0000000000000000      0x18e obj/task.o
 .debug_macro   0x0000000000000000      0x353 obj/task.o
 .debug_macro   0x0000000000000000       0x10 obj/task.o
 .debug_macro   0x0000000000000000       0x35 obj/task.o
 .debug_macro   0x0000000000000000       0x1c obj/task.o
 .debug_macro   0x0000000000000000       0xef obj/task.o
 .debug_macro   0x0000000000000000       0x6a obj/task.o
 .debug_macro   0x0000000000000000      0x1df obj/task.o
 .debug_macro   0x0000000000000000       0x2b obj/task.o
 .debug_macro   0x0000000000000000       0xee obj/task.o
 .debug_macro   0x0000000000000000       0x16 obj/task.o
 .debug_macro   0x0000000000000000       0x58 obj/task.o
 .debug_macro   0x0000000000000000       0x22 obj/task.o
 .debug_macro   0x0000000000000000       0x29 obj/task.o
 .debug_macro   0x0000000000000000       0x2e obj/task.o
 .debug_macro   0x0000000000000000       0x22 obj/task.o
 .debug_macro   0x0000000000000000       0x3b obj/task.o
 .debug_macro   0x0000000000000000       0x34 obj/task.o
 .debug_macro   0x0000000000000000      0xcb4 obj/task.o
 .debug_macro   0x0000000000000000     0x1dde obj/task.o
 .debug_macro   0x0000000000000000       0x19 obj/task.o
 .group         0x0000000000000000        0xc obj/version.o
 .debug_macro   0x0000000000000000      0xb26 obj/version.o
 .group         0x0000000000000000       0x14 obj/application.o
 .group         0x0000000000000000        0xc obj/application.o
 .group         0x0000000000000000        0xc obj/application.o
 .group         0x0000000000000000        0xc obj/application.o
 .group         0x0000000000000000        0xc obj/application.o
 .group         0x0000000000000000        0xc obj/application.o
 .group         0x0000000000000000        0xc obj/application.o
 .group         0x0000000000000000        0xc obj/application.o
 .group         0x0000000000000000        0xc obj/application.o
 .group         0x0000000000000000        0xc obj/application.o
 .group         0x0000000000000000        0xc obj/application.o
 .group         0x0000000000000000        0xc obj/application.o
 .group         0x0000000000000000        0xc obj/application.o
 .group         0x0000000000000000        0xc obj/application.o
 .group         0x0000000000000000        0xc obj/application.o
 .group         0x0000000000000000        0xc obj/application.o
 .group         0x0000000000000000        0xc obj/application.o
 .group         0x0000000000000000        0xc obj/application.o
 .group         0x0000000000000000        0xc obj/application.o
 .group         0x0000000000000000        0xc obj/application.o
 .group         0x0000000000000000        0xc obj/application.o
 .group         0x0000000000000000        0xc obj/application.o
 .group         0x0000000000000000        0xc obj/application.o
 .group         0x0000000000000000        0xc obj/application.o
 .group         0x0000000000000000        0xc obj/application.o
 .group         0x0000000000000000        0xc obj/application.o
 .group         0x0000000000000000        0xc obj/application.o
 .group         0x0000000000000000        0xc obj/application.o
 .group         0x0000000000000000        0xc obj/application.o
 .group         0x0000000000000000        0xc obj/application.o
 .group         0x0000000000000000        0xc obj/application.o
 .group         0x0000000000000000        0xc obj/application.o
 .group         0x0000000000000000        0xc obj/application.o
 .group         0x0000000000000000        0xc obj/application.o
 .group         0x0000000000000000        0xc obj/application.o
 .group         0x0000000000000000        0xc obj/application.o
 .group         0x0000000000000000        0xc obj/application.o
 .group         0x0000000000000000        0xc obj/application.o
 .group         0x0000000000000000        0xc obj/application.o
 .group         0x0000000000000000        0xc obj/application.o
 .group         0x0000000000000000        0xc obj/application.o
 .group         0x0000000000000000        0xc obj/application.o
 .group         0x0000000000000000        0xc obj/application.o
 .group         0x0000000000000000        0xc obj/application.o
 .group         0x0000000000000000        0xc obj/application.o
 .group         0x0000000000000000        0xc obj/application.o
 .group         0x0000000000000000        0xc obj/application.o
 .group         0x0000000000000000        0xc obj/application.o
 .group         0x0000000000000000        0xc obj/application.o
 .debug_macro   0x0000000000000000      0xb26 obj/application.o
 .debug_macro   0x0000000000000000       0x22 obj/application.o
 .debug_macro   0x0000000000000000       0x58 obj/application.o
 .debug_macro   0x0000000000000000       0x18 obj/application.o
 .debug_macro   0x0000000000000000       0x94 obj/application.o
 .debug_macro   0x0000000000000000       0x35 obj/application.o
 .debug_macro   0x0000000000000000       0x34 obj/application.o
 .debug_macro   0x0000000000000000       0x57 obj/application.o
 .debug_macro   0x0000000000000000      0x353 obj/application.o
 .debug_macro   0x0000000000000000       0x58 obj/application.o
 .debug_macro   0x0000000000000000       0x1f obj/application.o
 .debug_macro   0x0000000000000000       0x43 obj/application.o
 .debug_macro   0x0000000000000000       0x20 obj/application.o
 .debug_macro   0x0000000000000000      0x18e obj/application.o
 .debug_macro   0x0000000000000000       0x10 obj/application.o
 .debug_macro   0x0000000000000000       0x6a obj/application.o
 .debug_macro   0x0000000000000000       0x1c obj/application.o
 .debug_macro   0x0000000000000000       0x52 obj/application.o
 .debug_macro   0x0000000000000000       0x40 obj/application.o
 .debug_macro   0x0000000000000000       0x10 obj/application.o
 .debug_macro   0x0000000000000000       0x40 obj/application.o
 .debug_macro   0x0000000000000000       0xd7 obj/application.o
 .debug_macro   0x0000000000000000       0x1c obj/application.o
 .debug_macro   0x0000000000000000       0x3d obj/application.o
 .debug_macro   0x0000000000000000       0x16 obj/application.o
 .debug_macro   0x0000000000000000      0x137 obj/application.o
 .debug_macro   0x0000000000000000       0x16 obj/application.o
 .debug_macro   0x0000000000000000       0x58 obj/application.o
 .debug_macro   0x0000000000000000       0x1c obj/application.o
 .debug_macro   0x0000000000000000       0xef obj/application.o
 .debug_macro   0x0000000000000000      0x1df obj/application.o
 .debug_macro   0x0000000000000000       0x2b obj/application.o
 .debug_macro   0x0000000000000000       0xee obj/application.o
 .debug_macro   0x0000000000000000       0x16 obj/application.o
 .debug_macro   0x0000000000000000       0x35 obj/application.o
 .debug_macro   0x0000000000000000       0x22 obj/application.o
 .debug_macro   0x0000000000000000       0x29 obj/application.o
 .debug_macro   0x0000000000000000       0x2e obj/application.o
 .debug_macro   0x0000000000000000       0x22 obj/application.o
 .debug_macro   0x0000000000000000       0x3b obj/application.o
 .debug_macro   0x0000000000000000       0x34 obj/application.o
 .debug_macro   0x0000000000000000      0xcb4 obj/application.o
 .debug_macro   0x0000000000000000     0x1dde obj/application.o
 .debug_macro   0x0000000000000000       0x19 obj/application.o
 .group         0x0000000000000000        0x8 obj/event.o
 .group         0x0000000000000000        0xc obj/event.o
 .group         0x0000000000000000        0xc obj/event.o
 .group         0x0000000000000000        0xc obj/event.o
 .group         0x0000000000000000        0xc obj/event.o
 .group         0x0000000000000000        0xc obj/event.o
 .group         0x0000000000000000        0xc obj/event.o
 .group         0x0000000000000000        0xc obj/event.o
 .group         0x0000000000000000        0xc obj/event.o
 .group         0x0000000000000000        0xc obj/event.o
 .group         0x0000000000000000        0xc obj/event.o
 .group         0x0000000000000000        0xc obj/event.o
 .group         0x0000000000000000        0xc obj/event.o
 .group         0x0000000000000000        0xc obj/event.o
 .group         0x0000000000000000        0xc obj/event.o
 .group         0x0000000000000000        0xc obj/event.o
 .group         0x0000000000000000        0xc obj/event.o
 .group         0x0000000000000000        0xc obj/event.o
 .group         0x0000000000000000        0xc obj/event.o
 .group         0x0000000000000000        0xc obj/event.o
 .group         0x0000000000000000        0xc obj/event.o
 .group         0x0000000000000000        0xc obj/event.o
 .group         0x0000000000000000        0xc obj/event.o
 .group         0x0000000000000000        0xc obj/event.o
 .group         0x0000000000000000        0xc obj/event.o
 .group         0x0000000000000000        0xc obj/event.o
 .group         0x0000000000000000        0xc obj/event.o
 .group         0x0000000000000000        0xc obj/event.o
 .group         0x0000000000000000        0xc obj/event.o
 .group         0x0000000000000000        0xc obj/event.o
 .group         0x0000000000000000        0xc obj/event.o
 .group         0x0000000000000000        0xc obj/event.o
 .group         0x0000000000000000        0xc obj/event.o
 .group         0x0000000000000000        0xc obj/event.o
 .group         0x0000000000000000        0xc obj/event.o
 .group         0x0000000000000000        0xc obj/event.o
 .group         0x0000000000000000        0xc obj/event.o
 .debug_macro   0x0000000000000000      0xb26 obj/event.o
 .debug_macro   0x0000000000000000       0x1c obj/event.o
 .debug_macro   0x0000000000000000       0x22 obj/event.o
 .debug_macro   0x0000000000000000       0x8e obj/event.o
 .debug_macro   0x0000000000000000       0x51 obj/event.o
 .debug_macro   0x0000000000000000       0xef obj/event.o
 .debug_macro   0x0000000000000000       0x6a obj/event.o
 .debug_macro   0x0000000000000000      0x1df obj/event.o
 .debug_macro   0x0000000000000000       0x5e obj/event.o
 .debug_macro   0x0000000000000000      0x17b obj/event.o
 .debug_macro   0x0000000000000000      0x353 obj/event.o
 .debug_macro   0x0000000000000000       0x25 obj/event.o
 .debug_macro   0x0000000000000000       0xee obj/event.o
 .debug_macro   0x0000000000000000       0x18 obj/event.o
 .debug_macro   0x0000000000000000       0x35 obj/event.o
 .debug_macro   0x0000000000000000       0x34 obj/event.o
 .debug_macro   0x0000000000000000       0x58 obj/event.o
 .debug_macro   0x0000000000000000       0x1f obj/event.o
 .debug_macro   0x0000000000000000       0x43 obj/event.o
 .debug_macro   0x0000000000000000       0x20 obj/event.o
 .debug_macro   0x0000000000000000      0x18e obj/event.o
 .debug_macro   0x0000000000000000       0x10 obj/event.o
 .debug_macro   0x0000000000000000       0x35 obj/event.o
 .debug_macro   0x0000000000000000       0x16 obj/event.o
 .debug_macro   0x0000000000000000       0x58 obj/event.o
 .debug_macro   0x0000000000000000       0x22 obj/event.o
 .debug_macro   0x0000000000000000       0x29 obj/event.o
 .debug_macro   0x0000000000000000       0x2e obj/event.o
 .debug_macro   0x0000000000000000       0x22 obj/event.o
 .debug_macro   0x0000000000000000       0x3b obj/event.o
 .debug_macro   0x0000000000000000       0x34 obj/event.o
 .debug_macro   0x0000000000000000      0xcb4 obj/event.o
 .debug_macro   0x0000000000000000     0x1dde obj/event.o
 .debug_macro   0x0000000000000000       0x19 obj/event.o
 .group         0x0000000000000000        0xc obj/buffer.o
 .group         0x0000000000000000        0xc obj/buffer.o
 .group         0x0000000000000000        0xc obj/buffer.o
 .group         0x0000000000000000        0xc obj/buffer.o
 .group         0x0000000000000000        0xc obj/buffer.o
 .group         0x0000000000000000        0xc obj/buffer.o
 .group         0x0000000000000000        0xc obj/buffer.o
 .group         0x0000000000000000        0xc obj/buffer.o
 .group         0x0000000000000000        0xc obj/buffer.o
 .group         0x0000000000000000        0xc obj/buffer.o
 .group         0x0000000000000000        0xc obj/buffer.o
 .group         0x0000000000000000        0xc obj/buffer.o
 .group         0x0000000000000000        0xc obj/buffer.o
 .group         0x0000000000000000        0xc obj/buffer.o
 .group         0x0000000000000000        0xc obj/buffer.o
 .group         0x0000000000000000        0xc obj/buffer.o
 .group         0x0000000000000000        0xc obj/buffer.o
 .group         0x0000000000000000        0xc obj/buffer.o
 .group         0x0000000000000000        0xc obj/buffer.o
 .group         0x0000000000000000        0xc obj/buffer.o
 .group         0x0000000000000000        0xc obj/buffer.o
 .group         0x0000000000000000        0xc obj/buffer.o
 .group         0x0000000000000000        0xc obj/buffer.o
 .group         0x0000000000000000        0xc obj/buffer.o
 .group         0x0000000000000000        0xc obj/buffer.o
 .group         0x0000000000000000        0xc obj/buffer.o
 .group         0x0000000000000000        0xc obj/buffer.o
 .debug_macro   0x0000000000000000      0xb26 obj/buffer.o
 .debug_macro   0x0000000000000000       0x22 obj/buffer.o
 .debug_macro   0x0000000000000000       0x58 obj/buffer.o
 .debug_macro   0x0000000000000000       0x18 obj/buffer.o
 .debug_macro   0x0000000000000000       0x94 obj/buffer.o
 .debug_macro   0x0000000000000000       0x35 obj/buffer.o
 .debug_macro   0x0000000000000000       0x34 obj/buffer.o
 .debug_macro   0x0000000000000000      0x17b obj/buffer.o
 .debug_macro   0x0000000000000000       0x57 obj/buffer.o
 .debug_macro   0x0000000000000000       0x58 obj/buffer.o
 .debug_macro   0x0000000000000000       0x1f obj/buffer.o
 .debug_macro   0x0000000000000000       0x43 obj/buffer.o
 .debug_macro   0x0000000000000000       0x20 obj/buffer.o
 .debug_macro   0x0000000000000000      0x18e obj/buffer.o
 .debug_macro   0x0000000000000000      0x353 obj/buffer.o
 .debug_macro   0x0000000000000000       0x10 obj/buffer.o
 .debug_macro   0x0000000000000000       0x35 obj/buffer.o
 .debug_macro   0x0000000000000000       0x1c obj/buffer.o
 .debug_macro   0x0000000000000000       0xef obj/buffer.o
 .debug_macro   0x0000000000000000       0x6a obj/buffer.o
 .debug_macro   0x0000000000000000      0x1df obj/buffer.o
 .debug_macro   0x0000000000000000       0x2b obj/buffer.o
 .debug_macro   0x0000000000000000       0xee obj/buffer.o
 .debug_macro   0x0000000000000000       0x16 obj/buffer.o
 .debug_macro   0x0000000000000000       0x58 obj/buffer.o
 .debug_macro   0x0000000000000000       0x22 obj/buffer.o
 .debug_macro   0x0000000000000000       0x29 obj/buffer.o
 .group         0x0000000000000000        0xc obj/memory_management_operators.o
 .group         0x0000000000000000        0xc obj/memory_management_operators.o
 .group         0x0000000000000000        0xc obj/memory_management_operators.o
 .group         0x0000000000000000        0xc obj/memory_management_operators.o
 .group         0x0000000000000000        0xc obj/memory_management_operators.o
 .group         0x0000000000000000        0xc obj/memory_management_operators.o
 .group         0x0000000000000000        0xc obj/memory_management_operators.o
 .group         0x0000000000000000        0xc obj/memory_management_operators.o
 .group         0x0000000000000000        0xc obj/memory_management_operators.o
 .group         0x0000000000000000        0xc obj/memory_management_operators.o
 .group         0x0000000000000000        0xc obj/memory_management_operators.o
 .group         0x0000000000000000        0xc obj/memory_management_operators.o
 .group         0x0000000000000000        0xc obj/memory_management_operators.o
 .group         0x0000000000000000        0xc obj/memory_management_operators.o
 .group         0x0000000000000000        0xc obj/memory_management_operators.o
 .group         0x0000000000000000        0xc obj/memory_management_operators.o
 .group         0x0000000000000000        0xc obj/memory_management_operators.o
 .group         0x0000000000000000        0xc obj/memory_management_operators.o
 .group         0x0000000000000000        0xc obj/memory_management_operators.o
 .group         0x0000000000000000        0xc obj/memory_management_operators.o
 .group         0x0000000000000000        0xc obj/memory_management_operators.o
 .group         0x0000000000000000        0xc obj/memory_management_operators.o
 .group         0x0000000000000000        0xc obj/memory_management_operators.o
 .group         0x0000000000000000        0xc obj/memory_management_operators.o
 .group         0x0000000000000000        0xc obj/memory_management_operators.o
 .group         0x0000000000000000        0xc obj/memory_management_operators.o
 .group         0x0000000000000000        0xc obj/memory_management_operators.o
 .group         0x0000000000000000        0xc obj/memory_management_operators.o
 .group         0x0000000000000000        0xc obj/memory_management_operators.o
 .group         0x0000000000000000        0xc obj/memory_management_operators.o
 .group         0x0000000000000000        0xc obj/memory_management_operators.o
 .group         0x0000000000000000        0xc obj/memory_management_operators.o
 .group         0x0000000000000000        0xc obj/memory_management_operators.o
 .group         0x0000000000000000        0xc obj/memory_management_operators.o
 .group         0x0000000000000000        0xc obj/memory_management_operators.o
 .group         0x0000000000000000        0xc obj/memory_management_operators.o
 .group         0x0000000000000000        0xc obj/memory_management_operators.o
 .group         0x0000000000000000        0xc obj/memory_management_operators.o
 .group         0x0000000000000000        0xc obj/memory_management_operators.o
 .group         0x0000000000000000        0xc obj/memory_management_operators.o
 .group         0x0000000000000000        0xc obj/memory_management_operators.o
 .group         0x0000000000000000        0xc obj/memory_management_operators.o
 .debug_macro   0x0000000000000000      0xb26 obj/memory_management_operators.o
 .debug_macro   0x0000000000000000      0x17b obj/memory_management_operators.o
 .debug_macro   0x0000000000000000       0x1c obj/memory_management_operators.o
 .debug_macro   0x0000000000000000       0x22 obj/memory_management_operators.o
 .debug_macro   0x0000000000000000       0x8e obj/memory_management_operators.o
 .debug_macro   0x0000000000000000       0x51 obj/memory_management_operators.o
 .debug_macro   0x0000000000000000       0xef obj/memory_management_operators.o
 .debug_macro   0x0000000000000000       0x6a obj/memory_management_operators.o
 .debug_macro   0x0000000000000000      0x1df obj/memory_management_operators.o
 .debug_macro   0x0000000000000000       0x5e obj/memory_management_operators.o
 .debug_macro   0x0000000000000000      0x353 obj/memory_management_operators.o
 .debug_macro   0x0000000000000000       0x25 obj/memory_management_operators.o
 .debug_macro   0x0000000000000000       0xee obj/memory_management_operators.o
 .debug_macro   0x0000000000000000       0x18 obj/memory_management_operators.o
 .debug_macro   0x0000000000000000       0x35 obj/memory_management_operators.o
 .debug_macro   0x0000000000000000       0x34 obj/memory_management_operators.o
 .debug_macro   0x0000000000000000       0x58 obj/memory_management_operators.o
 .debug_macro   0x0000000000000000       0x1f obj/memory_management_operators.o
 .debug_macro   0x0000000000000000       0x43 obj/memory_management_operators.o
 .debug_macro   0x0000000000000000       0x20 obj/memory_management_operators.o
 .debug_macro   0x0000000000000000      0x18e obj/memory_management_operators.o
 .debug_macro   0x0000000000000000       0x10 obj/memory_management_operators.o
 .debug_macro   0x0000000000000000       0x35 obj/memory_management_operators.o
 .debug_macro   0x0000000000000000       0x16 obj/memory_management_operators.o
 .debug_macro   0x0000000000000000       0x58 obj/memory_management_operators.o
 .debug_macro   0x0000000000000000       0x22 obj/memory_management_operators.o
 .debug_macro   0x0000000000000000       0x29 obj/memory_management_operators.o
 .debug_macro   0x0000000000000000       0x2e obj/memory_management_operators.o
 .debug_macro   0x0000000000000000       0x22 obj/memory_management_operators.o
 .debug_macro   0x0000000000000000       0x3b obj/memory_management_operators.o
 .debug_macro   0x0000000000000000       0x34 obj/memory_management_operators.o
 .debug_macro   0x0000000000000000      0xcb4 obj/memory_management_operators.o
 .debug_macro   0x0000000000000000     0x1dde obj/memory_management_operators.o
 .debug_macro   0x0000000000000000       0x19 obj/memory_management_operators.o
 .debug_macro   0x0000000000000000      0x168 obj/memory_management_operators.o
 .debug_macro   0x0000000000000000       0x10 obj/memory_management_operators.o
 .debug_macro   0x0000000000000000      0x3f4 obj/memory_management_operators.o
 .group         0x0000000000000000       0x18 obj/memory_manager.o
 .group         0x0000000000000000        0xc obj/memory_manager.o
 .group         0x0000000000000000        0xc obj/memory_manager.o
 .group         0x0000000000000000        0xc obj/memory_manager.o
 .group         0x0000000000000000        0xc obj/memory_manager.o
 .group         0x0000000000000000        0xc obj/memory_manager.o
 .group         0x0000000000000000        0xc obj/memory_manager.o
 .group         0x0000000000000000        0xc obj/memory_manager.o
 .group         0x0000000000000000        0xc obj/memory_manager.o
 .group         0x0000000000000000        0xc obj/memory_manager.o
 .group         0x0000000000000000        0xc obj/memory_manager.o
 .group         0x0000000000000000        0xc obj/memory_manager.o
 .group         0x0000000000000000        0xc obj/memory_manager.o
 .group         0x0000000000000000        0xc obj/memory_manager.o
 .group         0x0000000000000000        0xc obj/memory_manager.o
 .group         0x0000000000000000        0xc obj/memory_manager.o
 .group         0x0000000000000000        0xc obj/memory_manager.o
 .group         0x0000000000000000        0xc obj/memory_manager.o
 .group         0x0000000000000000        0xc obj/memory_manager.o
 .group         0x0000000000000000        0xc obj/memory_manager.o
 .group         0x0000000000000000        0xc obj/memory_manager.o
 .group         0x0000000000000000        0xc obj/memory_manager.o
 .group         0x0000000000000000        0xc obj/memory_manager.o
 .group         0x0000000000000000        0xc obj/memory_manager.o
 .group         0x0000000000000000        0xc obj/memory_manager.o
 .group         0x0000000000000000        0xc obj/memory_manager.o
 .group         0x0000000000000000        0xc obj/memory_manager.o
 .group         0x0000000000000000        0xc obj/memory_manager.o
 .group         0x0000000000000000        0xc obj/memory_manager.o
 .group         0x0000000000000000        0xc obj/memory_manager.o
 .group         0x0000000000000000        0xc obj/memory_manager.o
 .group         0x0000000000000000        0xc obj/memory_manager.o
 .group         0x0000000000000000        0xc obj/memory_manager.o
 .group         0x0000000000000000        0xc obj/memory_manager.o
 .group         0x0000000000000000        0xc obj/memory_manager.o
 .group         0x0000000000000000        0xc obj/memory_manager.o
 .group         0x0000000000000000        0xc obj/memory_manager.o
 .group         0x0000000000000000        0xc obj/memory_manager.o
 .group         0x0000000000000000        0xc obj/memory_manager.o
 .group         0x0000000000000000        0xc obj/memory_manager.o
 .group         0x0000000000000000        0xc obj/memory_manager.o
 .group         0x0000000000000000        0xc obj/memory_manager.o
 .group         0x0000000000000000        0xc obj/memory_manager.o
 .group         0x0000000000000000        0xc obj/memory_manager.o
 .group         0x0000000000000000        0xc obj/memory_manager.o
 .group         0x0000000000000000        0xc obj/memory_manager.o
 .group         0x0000000000000000        0xc obj/memory_manager.o
 .group         0x0000000000000000        0xc obj/memory_manager.o
 .group         0x0000000000000000        0xc obj/memory_manager.o
 .group         0x0000000000000000        0xc obj/memory_manager.o
 .group         0x0000000000000000        0xc obj/memory_manager.o
 .group         0x0000000000000000        0xc obj/memory_manager.o
 .group         0x0000000000000000        0xc obj/memory_manager.o
 .group         0x0000000000000000        0xc obj/memory_manager.o
 .group         0x0000000000000000        0xc obj/memory_manager.o
 .group         0x0000000000000000        0xc obj/memory_manager.o
 .group         0x0000000000000000        0xc obj/memory_manager.o
 .group         0x0000000000000000        0xc obj/memory_manager.o
 .debug_macro   0x0000000000000000      0xb26 obj/memory_manager.o
 .debug_macro   0x0000000000000000      0x168 obj/memory_manager.o
 .debug_macro   0x0000000000000000       0x10 obj/memory_manager.o
 .debug_macro   0x0000000000000000      0x3f4 obj/memory_manager.o
 .debug_macro   0x0000000000000000       0x10 obj/memory_manager.o
 .debug_macro   0x0000000000000000       0x18 obj/memory_manager.o
 .debug_macro   0x0000000000000000       0x22 obj/memory_manager.o
 .debug_macro   0x0000000000000000       0x58 obj/memory_manager.o
 .debug_macro   0x0000000000000000       0x94 obj/memory_manager.o
 .debug_macro   0x0000000000000000       0x35 obj/memory_manager.o
 .debug_macro   0x0000000000000000       0x34 obj/memory_manager.o
 .debug_macro   0x0000000000000000       0x16 obj/memory_manager.o
 .debug_macro   0x0000000000000000      0x10e obj/memory_manager.o
 .debug_macro   0x0000000000000000       0x94 obj/memory_manager.o
 .debug_macro   0x0000000000000000       0x57 obj/memory_manager.o
 .debug_macro   0x0000000000000000       0x58 obj/memory_manager.o
 .debug_macro   0x0000000000000000       0x1f obj/memory_manager.o
 .debug_macro   0x0000000000000000       0x43 obj/memory_manager.o
 .debug_macro   0x0000000000000000       0x20 obj/memory_manager.o
 .debug_macro   0x0000000000000000      0x18e obj/memory_manager.o
 .debug_macro   0x0000000000000000      0x353 obj/memory_manager.o
 .debug_macro   0x0000000000000000       0x16 obj/memory_manager.o
 .debug_macro   0x0000000000000000       0x29 obj/memory_manager.o
 .debug_macro   0x0000000000000000       0x1c obj/memory_manager.o
 .debug_macro   0x0000000000000000       0xde obj/memory_manager.o
 .debug_macro   0x0000000000000000       0x1c obj/memory_manager.o
 .debug_macro   0x0000000000000000       0x35 obj/memory_manager.o
 .debug_macro   0x0000000000000000       0x10 obj/memory_manager.o
 .debug_macro   0x0000000000000000       0x10 obj/memory_manager.o
 .debug_macro   0x0000000000000000       0x6a obj/memory_manager.o
 .debug_macro   0x0000000000000000       0x1c obj/memory_manager.o
 .debug_macro   0x0000000000000000       0x52 obj/memory_manager.o
 .debug_macro   0x0000000000000000       0x40 obj/memory_manager.o
 .debug_macro   0x0000000000000000       0x10 obj/memory_manager.o
 .debug_macro   0x0000000000000000       0x40 obj/memory_manager.o
 .debug_macro   0x0000000000000000       0xd7 obj/memory_manager.o
 .debug_macro   0x0000000000000000       0x1c obj/memory_manager.o
 .debug_macro   0x0000000000000000       0x3d obj/memory_manager.o
 .debug_macro   0x0000000000000000       0x16 obj/memory_manager.o
 .debug_macro   0x0000000000000000      0x137 obj/memory_manager.o
 .debug_macro   0x0000000000000000       0x1c obj/memory_manager.o
 .debug_macro   0x0000000000000000       0xef obj/memory_manager.o
 .debug_macro   0x0000000000000000      0x1df obj/memory_manager.o
 .debug_macro   0x0000000000000000       0x2b obj/memory_manager.o
 .debug_macro   0x0000000000000000       0xee obj/memory_manager.o
 .debug_macro   0x0000000000000000       0x16 obj/memory_manager.o
 .debug_macro   0x0000000000000000       0x16 obj/memory_manager.o
 .debug_macro   0x0000000000000000       0x58 obj/memory_manager.o
 .debug_macro   0x0000000000000000       0x22 obj/memory_manager.o
 .debug_macro   0x0000000000000000       0x29 obj/memory_manager.o
 .debug_macro   0x0000000000000000       0x2e obj/memory_manager.o
 .debug_macro   0x0000000000000000       0x22 obj/memory_manager.o
 .debug_macro   0x0000000000000000       0x3b obj/memory_manager.o
 .debug_macro   0x0000000000000000       0x34 obj/memory_manager.o
 .debug_macro   0x0000000000000000      0xcb4 obj/memory_manager.o
 .debug_macro   0x0000000000000000     0x1dde obj/memory_manager.o
 .debug_macro   0x0000000000000000       0x19 obj/memory_manager.o
 .group         0x0000000000000000        0xc obj/profiler.o
 .group         0x0000000000000000        0xc obj/profiler.o
 .group         0x0000000000000000        0xc obj/profiler.o
 .debug_macro   0x0000000000000000      0xb26 obj/profiler.o
 .debug_macro   0x0000000000000000       0x16 obj/profiler.o
 .debug_macro   0x0000000000000000       0x58 obj/profiler.o
 .group         0x0000000000000000        0x8 obj/semaphore.o
 .group         0x0000000000000000        0xc obj/semaphore.o
 .group         0x0000000000000000        0xc obj/semaphore.o
 .group         0x0000000000000000        0xc obj/semaphore.o
 .group         0x0000000000000000        0xc obj/semaphore.o
 .group         0x0000000000000000        0xc obj/semaphore.o
 .group         0x0000000000000000        0xc obj/semaphore.o
 .group         0x0000000000000000        0xc obj/semaphore.o
 .group         0x0000000000000000        0xc obj/semaphore.o
 .group         0x0000000000000000        0xc obj/semaphore.o
 .group         0x0000000000000000        0xc obj/semaphore.o
 .group         0x0000000000000000        0xc obj/semaphore.o
 .group         0x0000000000000000        0xc obj/semaphore.o
 .group         0x0000000000000000        0xc obj/semaphore.o
 .group         0x0000000000000000        0xc obj/semaphore.o
 .group         0x0000000000000000        0xc obj/semaphore.o
 .group         0x0000000000000000        0xc obj/semaphore.o
 .group         0x0000000000000000        0xc obj/semaphore.o
 .group         0x0000000000000000        0xc obj/semaphore.o
 .group         0x0000000000000000        0xc obj/semaphore.o
 .group         0x0000000000000000        0xc obj/semaphore.o
 .group         0x0000000000000000        0xc obj/semaphore.o
 .group         0x0000000000000000        0xc obj/semaphore.o
 .group         0x0000000000000000        0xc obj/semaphore.o
 .group         0x0000000000000000        0xc obj/semaphore.o
 .group         0x0000000000000000        0xc obj/semaphore.o
 .group         0x0000000000000000        0xc obj/semaphore.o
 .group         0x0000000000000000        0xc obj/semaphore.o
 .group         0x0000000000000000        0xc obj/semaphore.o
 .group         0x0000000000000000        0xc obj/semaphore.o
 .group         0x0000000000000000        0xc obj/semaphore.o
 .group         0x0000000000000000        0xc obj/semaphore.o
 .group         0x0000000000000000        0xc obj/semaphore.o
 .group         0x0000000000000000        0xc obj/semaphore.o
 .group         0x0000000000000000        0xc obj/semaphore.o
 .group         0x0000000000000000        0xc obj/semaphore.o
 .group         0x0000000000000000        0xc obj/semaphore.o
 .debug_macro   0x0000000000000000      0xb26 obj/semaphore.o
 .debug_macro   0x0000000000000000       0x1c obj/semaphore.o
 .debug_macro   0x0000000000000000       0x22 obj/semaphore.o
 .debug_macro   0x0000000000000000       0x8e obj/semaphore.o
 .debug_macro   0x0000000000000000       0x51 obj/semaphore.o
 .debug_macro   0x0000000000000000       0xef obj/semaphore.o
 .debug_macro   0x0000000000000000       0x6a obj/semaphore.o
 .debug_macro   0x0000000000000000      0x1df obj/semaphore.o
 .debug_macro   0x0000000000000000       0x5e obj/semaphore.o
 .debug_macro   0x0000000000000000      0x17b obj/semaphore.o
 .debug_macro   0x0000000000000000      0x353 obj/semaphore.o
 .debug_macro   0x0000000000000000       0x25 obj/semaphore.o
 .debug_macro   0x0000000000000000       0xee obj/semaphore.o
 .debug_macro   0x0000000000000000       0x18 obj/semaphore.o
 .debug_macro   0x0000000000000000       0x35 obj/semaphore.o
 .debug_macro   0x0000000000000000       0x34 obj/semaphore.o
 .debug_macro   0x0000000000000000       0x58 obj/semaphore.o
 .debug_macro   0x0000000000000000       0x1f obj/semaphore.o
 .debug_macro   0x0000000000000000       0x43 obj/semaphore.o
 .debug_macro   0x0000000000000000       0x20 obj/semaphore.o
 .debug_macro   0x0000000000000000      0x18e obj/semaphore.o
 .debug_macro   0x0000000000000000       0x10 obj/semaphore.o
 .debug_macro   0x0000000000000000       0x35 obj/semaphore.o
 .debug_macro   0x0000000000000000       0x16 obj/semaphore.o
 .debug_macro   0x0000000000000000       0x58 obj/semaphore.o
 .debug_macro   0x0000000000000000       0x22 obj/semaphore.o
 .debug_macro   0x0000000000000000       0x29 obj/semaphore.o
 .debug_macro   0x0000000000000000       0x2e obj/semaphore.o
 .debug_macro   0x0000000000000000       0x22 obj/semaphore.o
 .debug_macro   0x0000000000000000       0x3b obj/semaphore.o
 .debug_macro   0x0000000000000000       0x34 obj/semaphore.o
 .debug_macro   0x0000000000000000      0xcb4 obj/semaphore.o
 .debug_macro   0x0000000000000000     0x1dde obj/semaphore.o
 .debug_macro   0x0000000000000000       0x19 obj/semaphore.o
 .group         0x0000000000000000        0x8 obj/mutex.o
 .group         0x0000000000000000        0xc obj/mutex.o
 .group         0x0000000000000000        0xc obj/mutex.o
 .group         0x0000000000000000        0xc obj/mutex.o
 .group         0x0000000000000000        0xc obj/mutex.o
 .group         0x0000000000000000        0xc obj/mutex.o
 .group         0x0000000000000000        0xc obj/mutex.o
 .group         0x0000000000000000        0xc obj/mutex.o
 .group         0x0000000000000000        0xc obj/mutex.o
 .group         0x0000000000000000        0xc obj/mutex.o
 .group         0x0000000000000000        0xc obj/mutex.o
 .group         0x0000000000000000        0xc obj/mutex.o
 .group         0x0000000000000000        0xc obj/mutex.o
 .group         0x0000000000000000        0xc obj/mutex.o
 .group         0x0000000000000000        0xc obj/mutex.o
 .group         0x0000000000000000        0xc obj/mutex.o
 .group         0x0000000000000000        0xc obj/mutex.o
 .group         0x0000000000000000        0xc obj/mutex.o
 .group         0x0000000000000000        0xc obj/mutex.o
 .group         0x0000000000000000        0xc obj/mutex.o
 .group         0x0000000000000000        0xc obj/mutex.o
 .group         0x0000000000000000        0xc obj/mutex.o
 .group         0x0000000000000000        0xc obj/mutex.o
 .group         0x0000000000000000        0xc obj/mutex.o
 .group         0x0000000000000000        0xc obj/mutex.o
 .group         0x0000000000000000        0xc obj/mutex.o
 .group         0x0000000000000000        0xc obj/mutex.o
 .group         0x0000000000000000        0xc obj/mutex.o
 .group         0x0000000000000000        0xc obj/mutex.o
 .group         0x0000000000000000        0xc obj/mutex.o
 .group         0x0000000000000000        0xc obj/mutex.o
 .group         0x0000000000000000        0xc obj/mutex.o
 .group         0x0000000000000000        0xc obj/mutex.o
 .group         0x0000000000000000        0xc obj/mutex.o
 .group         0x0000000000000000        0xc obj/mutex.o
 .group         0x0000000000000000        0xc obj/mutex.o
 .debug_macro   0x0000000000000000      0xb26 obj/mutex.o
 .debug_macro   0x0000000000000000       0x1c obj/mutex.o
 .debug_macro   0x0000000000000000       0x22 obj/mutex.o
 .debug_macro   0x0000000000000000       0x8e obj/mutex.o
 .debug_macro   0x0000000000000000       0x51 obj/mutex.o
 .debug_macro   0x0000000000000000       0xef obj/mutex.o
 .debug_macro   0x0000000000000000       0x6a obj/mutex.o
 .debug_macro   0x0000000000000000      0x1df obj/mutex.o
 .debug_macro   0x0000000000000000      0x17b obj/mutex.o
 .debug_macro   0x0000000000000000       0x5e obj/mutex.o
 .debug_macro   0x0000000000000000      0x353 obj/mutex.o
 .debug_macro   0x0000000000000000       0x25 obj/mutex.o
 .debug_macro   0x0000000000000000       0xee obj/mutex.o
 .debug_macro   0x0000000000000000       0x18 obj/mutex.o
 .debug_macro   0x0000000000000000       0x35 obj/mutex.o
 .debug_macro   0x0000000000000000       0x34 obj/mutex.o
 .debug_macro   0x0000000000000000       0x58 obj/mutex.o
 .debug_macro   0x0000000000000000       0x1f obj/mutex.o
 .debug_macro   0x0000000000000000       0x43 obj/mutex.o
 .debug_macro   0x0000000000000000       0x20 obj/mutex.o
 .debug_macro   0x0000000000000000      0x18e obj/mutex.o
 .debug_macro   0x0000000000000000       0x10 obj/mutex.o
 .debug_macro   0x0000000000000000       0x35 obj/mutex.o
 .debug_macro   0x0000000000000000       0x16 obj/mutex.o
 .debug_macro   0x0000000000000000       0x58 obj/mutex.o
 .debug_macro   0x0000000000000000       0x22 obj/mutex.o
 .debug_macro   0x0000000000000000       0x29 obj/mutex.o
 .debug_macro   0x0000000000000000       0x2e obj/mutex.o
 .debug_macro   0x0000000000000000       0x22 obj/mutex.o
 .debug_macro   0x0000000000000000       0x3b obj/mutex.o
 .debug_macro   0x0000000000000000       0x34 obj/mutex.o
 .debug_macro   0x0000000000000000      0xcb4 obj/mutex.o
 .debug_macro   0x0000000000000000     0x1dde obj/mutex.o
 .debug_macro   0x0000000000000000       0x19 obj/mutex.o
 .group         0x0000000000000000        0xc obj/critical_section.o
 .group         0x0000000000000000        0xc obj/critical_section.o
 .group         0x0000000000000000        0xc obj/critical_section.o
 .group         0x0000000000000000        0xc obj/critical_section.o
 .group         0x0000000000000000        0xc obj/critical_section.o
 .group         0x0000000000000000        0xc obj/critical_section.o
 .group         0x0000000000000000        0xc obj/critical_section.o
 .group         0x0000000000000000        0xc obj/critical_section.o
 .group         0x0000000000000000        0xc obj/critical_section.o
 .group         0x0000000000000000        0xc obj/critical_section.o
 .group         0x0000000000000000        0xc obj/critical_section.o
 .group         0x0000000000000000        0xc obj/critical_section.o
 .group         0x0000000000000000        0xc obj/critical_section.o
 .group         0x0000000000000000        0xc obj/critical_section.o
 .group         0x0000000000000000        0xc obj/critical_section.o
 .group         0x0000000000000000        0xc obj/critical_section.o
 .group         0x0000000000000000        0xc obj/critical_section.o
 .group         0x0000000000000000        0xc obj/critical_section.o
 .group         0x0000000000000000        0xc obj/critical_section.o
 .group         0x0000000000000000        0xc obj/critical_section.o
 .group         0x0000000000000000        0xc obj/critical_section.o
 .group         0x0000000000000000        0xc obj/critical_section.o
 .group         0x0000000000000000        0xc obj/critical_section.o
 .group         0x0000000000000000        0xc obj/critical_section.o
 .group         0x0000000000000000        0xc obj/critical_section.o
 .group         0x0000000000000000        0xc obj/critical_section.o
 .group         0x0000000000000000        0xc obj/critical_section.o
 .group         0x0000000000000000        0xc obj/critical_section.o
 .group         0x0000000000000000        0xc obj/critical_section.o
 .group         0x0000000000000000        0xc obj/critical_section.o
 .group         0x0000000000000000        0xc obj/critical_section.o
 .group         0x0000000000000000        0xc obj/critical_section.o
 .group         0x0000000000000000        0xc obj/critical_section.o
 .debug_macro   0x0000000000000000      0xb26 obj/critical_section.o
 .debug_macro   0x0000000000000000       0x1c obj/critical_section.o
 .debug_macro   0x0000000000000000       0x22 obj/critical_section.o
 .debug_macro   0x0000000000000000       0x8e obj/critical_section.o
 .debug_macro   0x0000000000000000       0x51 obj/critical_section.o
 .debug_macro   0x0000000000000000       0xef obj/critical_section.o
 .debug_macro   0x0000000000000000       0x6a obj/critical_section.o
 .debug_macro   0x0000000000000000      0x1df obj/critical_section.o
 .debug_macro   0x0000000000000000       0x5e obj/critical_section.o
 .debug_macro   0x0000000000000000      0x17b obj/critical_section.o
 .debug_macro   0x0000000000000000      0x353 obj/critical_section.o
 .debug_macro   0x0000000000000000       0x25 obj/critical_section.o
 .debug_macro   0x0000000000000000       0xee obj/critical_section.o
 .debug_macro   0x0000000000000000       0x18 obj/critical_section.o
 .debug_macro   0x0000000000000000       0x35 obj/critical_section.o
 .debug_macro   0x0000000000000000       0x34 obj/critical_section.o
 .debug_macro   0x0000000000000000       0x58 obj/critical_section.o
 .debug_macro   0x0000000000000000       0x1f obj/critical_section.o
 .debug_macro   0x0000000000000000       0x43 obj/critical_section.o
 .debug_macro   0x0000000000000000       0x20 obj/critical_section.o
 .debug_macro   0x0000000000000000      0x18e obj/critical_section.o
 .debug_macro   0x0000000000000000       0x10 obj/critical_section.o
 .debug_macro   0x0000000000000000       0x35 obj/critical_section.o
 .debug_macro   0x0000000000000000       0x16 obj/critical_section.o
 .debug_macro   0x0000000000000000       0x58 obj/critical_section.o
 .debug_macro   0x0000000000000000       0x22 obj/critical_section.o
 .debug_macro   0x0000000000000000       0x29 obj/critical_section.o
 .debug_macro   0x0000000000000000       0x2e obj/critical_section.o
 .debug_macro   0x0000000000000000       0x22 obj/critical_section.o
 .debug_macro   0x0000000000000000       0x3b obj/critical_section.o
 .debug_macro   0x0000000000000000       0x34 obj/critical_section.o
 .debug_macro   0x0000000000000000      0xcb4 obj/critical_section.o
 .debug_macro   0x0000000000000000     0x1dde obj/critical_section.o
 .group         0x0000000000000000        0xc obj/_cxx.o
 .group         0x0000000000000000        0xc obj/_cxx.o
 .group         0x0000000000000000        0xc obj/_cxx.o
 .group         0x0000000000000000        0xc obj/_cxx.o
 .group         0x0000000000000000        0xc obj/_cxx.o
 .group         0x0000000000000000        0xc obj/_cxx.o
 .group         0x0000000000000000        0xc obj/_cxx.o
 .group         0x0000000000000000        0xc obj/_cxx.o
 .group         0x0000000000000000        0xc obj/_cxx.o
 .group         0x0000000000000000        0xc obj/_cxx.o
 .group         0x0000000000000000        0xc obj/_cxx.o
 .group         0x0000000000000000        0xc obj/_cxx.o
 .group         0x0000000000000000        0xc obj/_cxx.o
 .group         0x0000000000000000        0xc obj/_cxx.o
 .group         0x0000000000000000        0xc obj/_cxx.o
 .group         0x0000000000000000        0xc obj/_cxx.o
 .group         0x0000000000000000        0xc obj/_cxx.o
 .group         0x0000000000000000        0xc obj/_cxx.o
 .group         0x0000000000000000        0xc obj/_cxx.o
 .group         0x0000000000000000        0xc obj/_cxx.o
 .group         0x0000000000000000        0xc obj/_cxx.o
 .group         0x0000000000000000        0xc obj/_cxx.o
 .group         0x0000000000000000        0xc obj/_cxx.o
 .group         0x0000000000000000        0xc obj/_cxx.o
 .group         0x0000000000000000        0xc obj/_cxx.o
 .group         0x0000000000000000        0xc obj/_cxx.o
 .group         0x0000000000000000        0xc obj/_cxx.o
 .group         0x0000000000000000        0xc obj/_cxx.o
 .group         0x0000000000000000        0xc obj/_cxx.o
 .group         0x0000000000000000        0xc obj/_cxx.o
 .group         0x0000000000000000        0xc obj/_cxx.o
 .group         0x0000000000000000        0xc obj/_cxx.o
 .group         0x0000000000000000        0xc obj/_cxx.o
 .group         0x0000000000000000        0xc obj/_cxx.o
 .group         0x0000000000000000        0xc obj/_cxx.o
 .debug_macro   0x0000000000000000      0xb26 obj/_cxx.o
 .debug_macro   0x0000000000000000      0x168 obj/_cxx.o
 .debug_macro   0x0000000000000000       0x10 obj/_cxx.o
 .debug_macro   0x0000000000000000      0x3f4 obj/_cxx.o
 .debug_macro   0x0000000000000000       0x10 obj/_cxx.o
 .debug_macro   0x0000000000000000       0x18 obj/_cxx.o
 .debug_macro   0x0000000000000000       0x22 obj/_cxx.o
 .debug_macro   0x0000000000000000       0x58 obj/_cxx.o
 .debug_macro   0x0000000000000000       0x94 obj/_cxx.o
 .debug_macro   0x0000000000000000       0x35 obj/_cxx.o
 .debug_macro   0x0000000000000000       0x34 obj/_cxx.o
 .debug_macro   0x0000000000000000       0x16 obj/_cxx.o
 .debug_macro   0x0000000000000000      0x10e obj/_cxx.o
 .debug_macro   0x0000000000000000       0x94 obj/_cxx.o
 .debug_macro   0x0000000000000000       0x57 obj/_cxx.o
 .debug_macro   0x0000000000000000       0x58 obj/_cxx.o
 .debug_macro   0x0000000000000000       0x1f obj/_cxx.o
 .debug_macro   0x0000000000000000       0x43 obj/_cxx.o
 .debug_macro   0x0000000000000000       0x20 obj/_cxx.o
 .debug_macro   0x0000000000000000      0x18e obj/_cxx.o
 .debug_macro   0x0000000000000000      0x353 obj/_cxx.o
 .debug_macro   0x0000000000000000       0x16 obj/_cxx.o
 .debug_macro   0x0000000000000000       0x29 obj/_cxx.o
 .debug_macro   0x0000000000000000       0x1c obj/_cxx.o
 .debug_macro   0x0000000000000000       0xde obj/_cxx.o
 .debug_macro   0x0000000000000000       0x10 obj/_cxx.o
 .debug_macro   0x0000000000000000       0x6a obj/_cxx.o
 .debug_macro   0x0000000000000000       0x1c obj/_cxx.o
 .debug_macro   0x0000000000000000       0x52 obj/_cxx.o
 .debug_macro   0x0000000000000000       0x40 obj/_cxx.o
 .debug_macro   0x0000000000000000       0x10 obj/_cxx.o
 .debug_macro   0x0000000000000000       0x40 obj/_cxx.o
 .debug_macro   0x0000000000000000       0xd7 obj/_cxx.o
 .debug_macro   0x0000000000000000       0x1c obj/_cxx.o
 .debug_macro   0x0000000000000000       0x3d obj/_cxx.o
 .group         0x0000000000000000        0xc obj/timer.o
 .group         0x0000000000000000        0xc obj/timer.o
 .group         0x0000000000000000        0xc obj/timer.o
 .debug_macro   0x0000000000000000      0xb26 obj/timer.o
 .debug_macro   0x0000000000000000       0x16 obj/timer.o
 .debug_macro   0x0000000000000000       0x58 obj/timer.o
 .group         0x0000000000000000        0xc obj/system.o
 .group         0x0000000000000000        0xc obj/system.o
 .group         0x0000000000000000        0xc obj/system.o
 .group         0x0000000000000000        0xc obj/system.o
 .group         0x0000000000000000        0xc obj/system.o
 .group         0x0000000000000000        0xc obj/system.o
 .group         0x0000000000000000        0xc obj/system.o
 .group         0x0000000000000000        0xc obj/system.o
 .group         0x0000000000000000        0xc obj/system.o
 .group         0x0000000000000000        0xc obj/system.o
 .group         0x0000000000000000        0xc obj/system.o
 .group         0x0000000000000000        0xc obj/system.o
 .group         0x0000000000000000        0xc obj/system.o
 .group         0x0000000000000000        0xc obj/system.o
 .group         0x0000000000000000        0xc obj/system.o
 .group         0x0000000000000000        0xc obj/system.o
 .group         0x0000000000000000        0xc obj/system.o
 .group         0x0000000000000000        0xc obj/system.o
 .group         0x0000000000000000        0xc obj/system.o
 .group         0x0000000000000000        0xc obj/system.o
 .group         0x0000000000000000        0xc obj/system.o
 .group         0x0000000000000000        0xc obj/system.o
 .group         0x0000000000000000        0xc obj/system.o
 .group         0x0000000000000000        0xc obj/system.o
 .group         0x0000000000000000        0xc obj/system.o
 .group         0x0000000000000000        0xc obj/system.o
 .group         0x0000000000000000        0xc obj/system.o
 .group         0x0000000000000000        0xc obj/system.o
 .group         0x0000000000000000        0xc obj/system.o
 .group         0x0000000000000000        0xc obj/system.o
 .group         0x0000000000000000        0xc obj/system.o
 .group         0x0000000000000000        0xc obj/system.o
 .group         0x0000000000000000        0xc obj/system.o
 .debug_macro   0x0000000000000000      0xb26 obj/system.o
 .debug_macro   0x0000000000000000       0x1c obj/system.o
 .debug_macro   0x0000000000000000       0x22 obj/system.o
 .debug_macro   0x0000000000000000       0x8e obj/system.o
 .debug_macro   0x0000000000000000       0x51 obj/system.o
 .debug_macro   0x0000000000000000       0xef obj/system.o
 .debug_macro   0x0000000000000000       0x6a obj/system.o
 .debug_macro   0x0000000000000000      0x1df obj/system.o
 .debug_macro   0x0000000000000000       0x5e obj/system.o
 .debug_macro   0x0000000000000000      0x17b obj/system.o
 .debug_macro   0x0000000000000000      0x353 obj/system.o
 .debug_macro   0x0000000000000000       0x25 obj/system.o
 .debug_macro   0x0000000000000000       0xee obj/system.o
 .debug_macro   0x0000000000000000       0x18 obj/system.o
 .debug_macro   0x0000000000000000       0x35 obj/system.o
 .debug_macro   0x0000000000000000       0x34 obj/system.o
 .debug_macro   0x0000000000000000       0x58 obj/system.o
 .debug_macro   0x0000000000000000       0x1f obj/system.o
 .debug_macro   0x0000000000000000       0x43 obj/system.o
 .debug_macro   0x0000000000000000       0x20 obj/system.o
 .debug_macro   0x0000000000000000      0x18e obj/system.o
 .debug_macro   0x0000000000000000       0x10 obj/system.o
 .debug_macro   0x0000000000000000       0x35 obj/system.o
 .debug_macro   0x0000000000000000       0x16 obj/system.o
 .debug_macro   0x0000000000000000       0x58 obj/system.o
 .debug_macro   0x0000000000000000       0x22 obj/system.o
 .debug_macro   0x0000000000000000       0x29 obj/system.o
 .debug_macro   0x0000000000000000       0x2e obj/system.o
 .debug_macro   0x0000000000000000       0x22 obj/system.o
 .debug_macro   0x0000000000000000       0x3b obj/system.o
 .debug_macro   0x0000000000000000       0x34 obj/system.o
 .debug_macro   0x0000000000000000      0xcb4 obj/system.o
 .debug_macro   0x0000000000000000     0x1dde obj/system.o
 .group         0x0000000000000000        0xc obj/cortex_m.o
 .group         0x0000000000000000        0xc obj/cortex_m.o
 .group         0x0000000000000000        0xc obj/cortex_m.o
 .group         0x0000000000000000        0xc obj/cortex_m.o
 .group         0x0000000000000000        0xc obj/cortex_m.o
 .group         0x0000000000000000        0xc obj/cortex_m.o
 .group         0x0000000000000000        0xc obj/cortex_m.o
 .group         0x0000000000000000        0xc obj/cortex_m.o
 .group         0x0000000000000000        0xc obj/cortex_m.o
 .group         0x0000000000000000        0xc obj/cortex_m.o
 .group         0x0000000000000000        0xc obj/cortex_m.o
 .group         0x0000000000000000        0xc obj/cortex_m.o
 .group         0x0000000000000000        0xc obj/cortex_m.o
 .group         0x0000000000000000        0xc obj/cortex_m.o
 .group         0x0000000000000000        0xc obj/cortex_m.o
 .group         0x0000000000000000        0xc obj/cortex_m.o
 .group         0x0000000000000000        0xc obj/cortex_m.o
 .group         0x0000000000000000        0xc obj/cortex_m.o
 .group         0x0000000000000000        0xc obj/cortex_m.o
 .group         0x0000000000000000        0xc obj/cortex_m.o
 .group         0x0000000000000000        0xc obj/cortex_m.o
 .group         0x0000000000000000        0xc obj/cortex_m.o
 .group         0x0000000000000000        0xc obj/cortex_m.o
 .group         0x0000000000000000        0xc obj/cortex_m.o
 .group         0x0000000000000000        0xc obj/cortex_m.o
 .group         0x0000000000000000        0xc obj/cortex_m.o
 .group         0x0000000000000000        0xc obj/cortex_m.o
 .group         0x0000000000000000        0xc obj/cortex_m.o
 .group         0x0000000000000000        0xc obj/cortex_m.o
 .group         0x0000000000000000        0xc obj/cortex_m.o
 .group         0x0000000000000000        0xc obj/cortex_m.o
 .group         0x0000000000000000        0xc obj/cortex_m.o
 .group         0x0000000000000000        0xc obj/cortex_m.o
 .group         0x0000000000000000        0xc obj/cortex_m.o
 .debug_macro   0x0000000000000000      0xb26 obj/cortex_m.o
 .debug_macro   0x0000000000000000       0x1c obj/cortex_m.o
 .debug_macro   0x0000000000000000       0x22 obj/cortex_m.o
 .debug_macro   0x0000000000000000       0x8e obj/cortex_m.o
 .debug_macro   0x0000000000000000       0x51 obj/cortex_m.o
 .debug_macro   0x0000000000000000       0xef obj/cortex_m.o
 .debug_macro   0x0000000000000000       0x6a obj/cortex_m.o
 .debug_macro   0x0000000000000000      0x1df obj/cortex_m.o
 .debug_macro   0x0000000000000000       0x5e obj/cortex_m.o
 .debug_macro   0x0000000000000000      0x17b obj/cortex_m.o
 .debug_macro   0x0000000000000000      0x353 obj/cortex_m.o
 .debug_macro   0x0000000000000000       0x25 obj/cortex_m.o
 .debug_macro   0x0000000000000000       0xee obj/cortex_m.o
 .debug_macro   0x0000000000000000       0x18 obj/cortex_m.o
 .debug_macro   0x0000000000000000       0x35 obj/cortex_m.o
 .debug_macro   0x0000000000000000       0x34 obj/cortex_m.o
 .debug_macro   0x0000000000000000       0x58 obj/cortex_m.o
 .debug_macro   0x0000000000000000       0x1f obj/cortex_m.o
 .debug_macro   0x0000000000000000       0x43 obj/cortex_m.o
 .debug_macro   0x0000000000000000       0x20 obj/cortex_m.o
 .debug_macro   0x0000000000000000      0x18e obj/cortex_m.o
 .debug_macro   0x0000000000000000       0x10 obj/cortex_m.o
 .debug_macro   0x0000000000000000       0x35 obj/cortex_m.o
 .debug_macro   0x0000000000000000       0x16 obj/cortex_m.o
 .debug_macro   0x0000000000000000       0x58 obj/cortex_m.o
 .debug_macro   0x0000000000000000       0x22 obj/cortex_m.o
 .debug_macro   0x0000000000000000       0x29 obj/cortex_m.o
 .debug_macro   0x0000000000000000       0x2e obj/cortex_m.o
 .debug_macro   0x0000000000000000       0x22 obj/cortex_m.o
 .debug_macro   0x0000000000000000       0x3b obj/cortex_m.o
 .debug_macro   0x0000000000000000       0x34 obj/cortex_m.o
 .debug_macro   0x0000000000000000      0xcb4 obj/cortex_m.o
 .debug_macro   0x0000000000000000     0x1dde obj/cortex_m.o
 .debug_macro   0x0000000000000000       0x19 obj/cortex_m.o
 .group         0x0000000000000000        0xc obj/vectors.o
 .group         0x0000000000000000        0xc obj/vectors.o
 .group         0x0000000000000000        0xc obj/vectors.o
 .group         0x0000000000000000        0xc obj/vectors.o
 .group         0x0000000000000000        0xc obj/vectors.o
 .group         0x0000000000000000        0xc obj/vectors.o
 .group         0x0000000000000000        0xc obj/vectors.o
 .debug_macro   0x0000000000000000       0x22 obj/vectors.o
 .debug_macro   0x0000000000000000       0x8e obj/vectors.o
 .debug_macro   0x0000000000000000       0x51 obj/vectors.o
 .debug_macro   0x0000000000000000       0xef obj/vectors.o
 .debug_macro   0x0000000000000000       0x6a obj/vectors.o
 .debug_macro   0x0000000000000000      0x1df obj/vectors.o
 .group         0x0000000000000000        0xc obj/exception_handlers.o
 .group         0x0000000000000000        0xc obj/exception_handlers.o
 .group         0x0000000000000000        0xc obj/exception_handlers.o
 .group         0x0000000000000000        0xc obj/exception_handlers.o
 .group         0x0000000000000000        0xc obj/exception_handlers.o
 .group         0x0000000000000000        0xc obj/exception_handlers.o
 .group         0x0000000000000000        0xc obj/exception_handlers.o
 .group         0x0000000000000000        0xc obj/exception_handlers.o
 .group         0x0000000000000000        0xc obj/exception_handlers.o
 .group         0x0000000000000000        0xc obj/exception_handlers.o
 .group         0x0000000000000000        0xc obj/exception_handlers.o
 .group         0x0000000000000000        0xc obj/exception_handlers.o
 .group         0x0000000000000000        0xc obj/exception_handlers.o
 .group         0x0000000000000000        0xc obj/exception_handlers.o
 .group         0x0000000000000000        0xc obj/exception_handlers.o
 .group         0x0000000000000000        0xc obj/exception_handlers.o
 .group         0x0000000000000000        0xc obj/exception_handlers.o
 .group         0x0000000000000000        0xc obj/exception_handlers.o
 .group         0x0000000000000000        0xc obj/exception_handlers.o
 .group         0x0000000000000000        0xc obj/exception_handlers.o
 .group         0x0000000000000000        0xc obj/exception_handlers.o
 .group         0x0000000000000000        0xc obj/exception_handlers.o
 .group         0x0000000000000000        0xc obj/exception_handlers.o
 .group         0x0000000000000000        0xc obj/exception_handlers.o
 .group         0x0000000000000000        0xc obj/exception_handlers.o
 .debug_macro   0x0000000000000000      0xa66 obj/exception_handlers.o
 .debug_macro   0x0000000000000000       0x22 obj/exception_handlers.o
 .debug_macro   0x0000000000000000       0x8e obj/exception_handlers.o
 .debug_macro   0x0000000000000000       0x51 obj/exception_handlers.o
 .debug_macro   0x0000000000000000       0xef obj/exception_handlers.o
 .debug_macro   0x0000000000000000       0x6a obj/exception_handlers.o
 .debug_macro   0x0000000000000000      0x1df obj/exception_handlers.o
 .debug_macro   0x0000000000000000       0x3b obj/exception_handlers.o
 .debug_macro   0x0000000000000000       0x34 obj/exception_handlers.o
 .debug_macro   0x0000000000000000       0x5e obj/exception_handlers.o
 .debug_macro   0x0000000000000000       0x18 obj/exception_handlers.o
 .debug_macro   0x0000000000000000       0x35 obj/exception_handlers.o
 .debug_macro   0x0000000000000000       0x58 obj/exception_handlers.o
 .debug_macro   0x0000000000000000       0x1f obj/exception_handlers.o
 .debug_macro   0x0000000000000000       0x20 obj/exception_handlers.o
 .debug_macro   0x0000000000000000      0x18e obj/exception_handlers.o
 .debug_macro   0x0000000000000000       0x10 obj/exception_handlers.o
 .group         0x0000000000000000        0xc obj/initialize_hardware.o
 .group         0x0000000000000000        0xc obj/initialize_hardware.o
 .group         0x0000000000000000        0xc obj/initialize_hardware.o
 .group         0x0000000000000000        0xc obj/initialize_hardware.o
 .group         0x0000000000000000        0xc obj/initialize_hardware.o
 .group         0x0000000000000000        0xc obj/initialize_hardware.o
 .group         0x0000000000000000        0xc obj/initialize_hardware.o
 .group         0x0000000000000000        0xc obj/initialize_hardware.o
 .group         0x0000000000000000        0xc obj/initialize_hardware.o
 .group         0x0000000000000000        0xc obj/initialize_hardware.o
 .group         0x0000000000000000        0xc obj/initialize_hardware.o
 .group         0x0000000000000000        0xc obj/initialize_hardware.o
 .debug_macro   0x0000000000000000      0xa66 obj/initialize_hardware.o
 .debug_macro   0x0000000000000000       0x2b obj/initialize_hardware.o
 .debug_macro   0x0000000000000000       0x22 obj/initialize_hardware.o
 .debug_macro   0x0000000000000000       0x8e obj/initialize_hardware.o
 .debug_macro   0x0000000000000000       0x51 obj/initialize_hardware.o
 .debug_macro   0x0000000000000000       0xef obj/initialize_hardware.o
 .debug_macro   0x0000000000000000       0x6a obj/initialize_hardware.o
 .debug_macro   0x0000000000000000      0x1df obj/initialize_hardware.o
 .debug_macro   0x0000000000000000       0x34 obj/initialize_hardware.o
 .debug_macro   0x0000000000000000      0xb80 obj/initialize_hardware.o
 .debug_macro   0x0000000000000000       0x43 obj/initialize_hardware.o
 .group         0x0000000000000000        0xc obj/reset_hardware.o
 .group         0x0000000000000000        0xc obj/reset_hardware.o
 .group         0x0000000000000000        0xc obj/reset_hardware.o
 .group         0x0000000000000000        0xc obj/reset_hardware.o
 .group         0x0000000000000000        0xc obj/reset_hardware.o
 .group         0x0000000000000000        0xc obj/reset_hardware.o
 .group         0x0000000000000000        0xc obj/reset_hardware.o
 .group         0x0000000000000000        0xc obj/reset_hardware.o
 .group         0x0000000000000000        0xc obj/reset_hardware.o
 .group         0x0000000000000000        0xc obj/reset_hardware.o
 .group         0x0000000000000000        0xc obj/reset_hardware.o
 .group         0x0000000000000000        0xc obj/reset_hardware.o
 .debug_macro   0x0000000000000000      0xa66 obj/reset_hardware.o
 .debug_macro   0x0000000000000000       0x2b obj/reset_hardware.o
 .debug_macro   0x0000000000000000       0x22 obj/reset_hardware.o
 .debug_macro   0x0000000000000000       0x8e obj/reset_hardware.o
 .debug_macro   0x0000000000000000       0x51 obj/reset_hardware.o
 .debug_macro   0x0000000000000000       0xef obj/reset_hardware.o
 .debug_macro   0x0000000000000000       0x6a obj/reset_hardware.o
 .debug_macro   0x0000000000000000      0x1df obj/reset_hardware.o
 .debug_macro   0x0000000000000000       0x35 obj/reset_hardware.o
 .debug_macro   0x0000000000000000       0x34 obj/reset_hardware.o
 .debug_macro   0x0000000000000000      0xb80 obj/reset_hardware.o
 .debug_macro   0x0000000000000000       0x43 obj/reset_hardware.o
 .group         0x0000000000000000        0xc obj/startup.o
 .group         0x0000000000000000        0xc obj/startup.o
 .group         0x0000000000000000        0xc obj/startup.o
 .group         0x0000000000000000        0xc obj/startup.o
 .group         0x0000000000000000        0xc obj/startup.o
 .group         0x0000000000000000        0xc obj/startup.o
 .group         0x0000000000000000        0xc obj/startup.o
 .group         0x0000000000000000        0xc obj/startup.o
 .group         0x0000000000000000        0xc obj/startup.o
 .group         0x0000000000000000        0xc obj/startup.o
 .group         0x0000000000000000        0xc obj/startup.o
 .group         0x0000000000000000        0xc obj/startup.o
 .group         0x0000000000000000        0xc obj/startup.o
 .group         0x0000000000000000        0xc obj/startup.o
 .group         0x0000000000000000        0xc obj/startup.o
 .group         0x0000000000000000        0xc obj/startup.o
 .group         0x0000000000000000        0xc obj/startup.o
 .group         0x0000000000000000        0xc obj/startup.o
 .group         0x0000000000000000        0xc obj/startup.o
 .group         0x0000000000000000        0xc obj/startup.o
 .group         0x0000000000000000        0xc obj/startup.o
 .group         0x0000000000000000        0xc obj/startup.o
 .group         0x0000000000000000        0xc obj/startup.o
 .group         0x0000000000000000        0xc obj/startup.o
 .group         0x0000000000000000        0xc obj/startup.o
 .group         0x0000000000000000        0xc obj/startup.o
 .debug_macro   0x0000000000000000      0xa66 obj/startup.o
 .debug_macro   0x0000000000000000       0x22 obj/startup.o
 .debug_macro   0x0000000000000000       0x8e obj/startup.o
 .debug_macro   0x0000000000000000       0x51 obj/startup.o
 .debug_macro   0x0000000000000000       0xef obj/startup.o
 .debug_macro   0x0000000000000000       0x6a obj/startup.o
 .debug_macro   0x0000000000000000      0x1df obj/startup.o
 .debug_macro   0x0000000000000000       0x5e obj/startup.o
 .debug_macro   0x0000000000000000       0x18 obj/startup.o
 .debug_macro   0x0000000000000000       0x35 obj/startup.o
 .debug_macro   0x0000000000000000       0x34 obj/startup.o
 .debug_macro   0x0000000000000000      0x174 obj/startup.o
 .debug_macro   0x0000000000000000      0x330 obj/startup.o
 .debug_macro   0x0000000000000000       0x10 obj/startup.o
 .debug_macro   0x0000000000000000       0x58 obj/startup.o
 .debug_macro   0x0000000000000000       0x1f obj/startup.o
 .debug_macro   0x0000000000000000       0x43 obj/startup.o
 .debug_macro   0x0000000000000000       0x20 obj/startup.o
 .debug_macro   0x0000000000000000       0x1c obj/startup.o
 .debug_macro   0x0000000000000000       0x52 obj/startup.o
 .debug_macro   0x0000000000000000       0x40 obj/startup.o
 .debug_macro   0x0000000000000000       0x10 obj/startup.o
 .debug_macro   0x0000000000000000       0x40 obj/startup.o
 .debug_macro   0x0000000000000000       0xd7 obj/startup.o
 .debug_macro   0x0000000000000000       0x1c obj/startup.o
 .debug_macro   0x0000000000000000       0x3d obj/startup.o
 .group         0x0000000000000000        0xc obj/_syscalls.o
 .group         0x0000000000000000        0xc obj/_syscalls.o
 .group         0x0000000000000000        0xc obj/_syscalls.o
 .group         0x0000000000000000        0xc obj/_syscalls.o
 .group         0x0000000000000000        0xc obj/_syscalls.o
 .group         0x0000000000000000        0xc obj/_syscalls.o
 .group         0x0000000000000000        0xc obj/_syscalls.o
 .group         0x0000000000000000        0xc obj/_syscalls.o
 .group         0x0000000000000000        0xc obj/_syscalls.o
 .group         0x0000000000000000        0xc obj/_syscalls.o
 .group         0x0000000000000000        0xc obj/_syscalls.o
 .group         0x0000000000000000        0xc obj/_syscalls.o
 .group         0x0000000000000000        0xc obj/_syscalls.o
 .group         0x0000000000000000        0xc obj/_syscalls.o
 .group         0x0000000000000000        0xc obj/_syscalls.o
 .group         0x0000000000000000        0xc obj/_syscalls.o
 .group         0x0000000000000000        0xc obj/_syscalls.o
 .group         0x0000000000000000        0xc obj/_syscalls.o
 .group         0x0000000000000000        0xc obj/_syscalls.o
 .group         0x0000000000000000        0xc obj/_syscalls.o
 .group         0x0000000000000000        0xc obj/_syscalls.o
 .group         0x0000000000000000        0xc obj/_syscalls.o
 .group         0x0000000000000000        0xc obj/_syscalls.o
 .group         0x0000000000000000        0xc obj/_syscalls.o
 .group         0x0000000000000000        0xc obj/_syscalls.o
 .group         0x0000000000000000        0xc obj/_syscalls.o
 .group         0x0000000000000000        0xc obj/_syscalls.o
 .group         0x0000000000000000        0xc obj/_syscalls.o
 .group         0x0000000000000000        0xc obj/_syscalls.o
 .group         0x0000000000000000        0xc obj/_syscalls.o
 .group         0x0000000000000000        0xc obj/_syscalls.o
 .group         0x0000000000000000        0xc obj/_syscalls.o
 .group         0x0000000000000000        0xc obj/_syscalls.o
 .group         0x0000000000000000        0xc obj/_syscalls.o
 .group         0x0000000000000000        0xc obj/_syscalls.o
 .group         0x0000000000000000        0xc obj/_syscalls.o
 .group         0x0000000000000000        0xc obj/_syscalls.o
 .group         0x0000000000000000        0xc obj/_syscalls.o
 .group         0x0000000000000000        0xc obj/_syscalls.o
 .debug_macro   0x0000000000000000      0xa66 obj/_syscalls.o
 .debug_macro   0x0000000000000000       0x22 obj/_syscalls.o
 .debug_macro   0x0000000000000000       0x58 obj/_syscalls.o
 .debug_macro   0x0000000000000000       0x18 obj/_syscalls.o
 .debug_macro   0x0000000000000000       0x94 obj/_syscalls.o
 .debug_macro   0x0000000000000000       0x35 obj/_syscalls.o
 .debug_macro   0x0000000000000000       0x34 obj/_syscalls.o
 .debug_macro   0x0000000000000000      0x174 obj/_syscalls.o
 .debug_macro   0x0000000000000000       0x57 obj/_syscalls.o
 .debug_macro   0x0000000000000000       0x58 obj/_syscalls.o
 .debug_macro   0x0000000000000000       0x1f obj/_syscalls.o
 .debug_macro   0x0000000000000000       0x43 obj/_syscalls.o
 .debug_macro   0x0000000000000000       0x20 obj/_syscalls.o
 .debug_macro   0x0000000000000000      0x18e obj/_syscalls.o
 .debug_macro   0x0000000000000000      0x330 obj/_syscalls.o
 .debug_macro   0x0000000000000000       0x35 obj/_syscalls.o
 .debug_macro   0x0000000000000000       0x10 obj/_syscalls.o
 .debug_macro   0x0000000000000000       0x6a obj/_syscalls.o
 .debug_macro   0x0000000000000000       0x1c obj/_syscalls.o
 .debug_macro   0x0000000000000000       0x52 obj/_syscalls.o
 .debug_macro   0x0000000000000000       0x40 obj/_syscalls.o
 .debug_macro   0x0000000000000000       0x10 obj/_syscalls.o
 .debug_macro   0x0000000000000000       0x40 obj/_syscalls.o
 .debug_macro   0x0000000000000000       0xd7 obj/_syscalls.o
 .debug_macro   0x0000000000000000       0x1c obj/_syscalls.o
 .debug_macro   0x0000000000000000       0x3d obj/_syscalls.o
 .debug_macro   0x0000000000000000       0x2b obj/_syscalls.o
 .group         0x0000000000000000        0xc obj/_exit.o
 .group         0x0000000000000000        0xc obj/_exit.o
 .group         0x0000000000000000        0xc obj/_exit.o
 .group         0x0000000000000000        0xc obj/_exit.o
 .group         0x0000000000000000        0xc obj/_exit.o
 .group         0x0000000000000000        0xc obj/_exit.o
 .group         0x0000000000000000        0xc obj/_exit.o
 .group         0x0000000000000000        0xc obj/_exit.o
 .group         0x0000000000000000        0xc obj/_exit.o
 .group         0x0000000000000000        0xc obj/_exit.o
 .group         0x0000000000000000        0xc obj/_exit.o
 .group         0x0000000000000000        0xc obj/_exit.o
 .group         0x0000000000000000        0xc obj/_exit.o
 .group         0x0000000000000000        0xc obj/_exit.o
 .group         0x0000000000000000        0xc obj/_exit.o
 .group         0x0000000000000000        0xc obj/_exit.o
 .group         0x0000000000000000        0xc obj/_exit.o
 .group         0x0000000000000000        0xc obj/_exit.o
 .group         0x0000000000000000        0xc obj/_exit.o
 .debug_macro   0x0000000000000000      0xa66 obj/_exit.o
 .debug_macro   0x0000000000000000       0x18 obj/_exit.o
 .debug_macro   0x0000000000000000       0x22 obj/_exit.o
 .debug_macro   0x0000000000000000       0x58 obj/_exit.o
 .debug_macro   0x0000000000000000       0x94 obj/_exit.o
 .debug_macro   0x0000000000000000       0x35 obj/_exit.o
 .debug_macro   0x0000000000000000       0x34 obj/_exit.o
 .debug_macro   0x0000000000000000       0x16 obj/_exit.o
 .debug_macro   0x0000000000000000       0x57 obj/_exit.o
 .debug_macro   0x0000000000000000       0x58 obj/_exit.o
 .debug_macro   0x0000000000000000       0x1f obj/_exit.o
 .debug_macro   0x0000000000000000       0x43 obj/_exit.o
 .debug_macro   0x0000000000000000       0x20 obj/_exit.o
 .debug_macro   0x0000000000000000      0x18e obj/_exit.o
 .debug_macro   0x0000000000000000      0x330 obj/_exit.o
 .debug_macro   0x0000000000000000       0x16 obj/_exit.o
 .debug_macro   0x0000000000000000       0x29 obj/_exit.o
 .group         0x0000000000000000        0xc obj/_sbrk.o
 .group         0x0000000000000000        0xc obj/_sbrk.o
 .group         0x0000000000000000        0xc obj/_sbrk.o
 .group         0x0000000000000000        0xc obj/_sbrk.o
 .group         0x0000000000000000        0xc obj/_sbrk.o
 .group         0x0000000000000000        0xc obj/_sbrk.o
 .group         0x0000000000000000        0xc obj/_sbrk.o
 .group         0x0000000000000000        0xc obj/_sbrk.o
 .group         0x0000000000000000        0xc obj/_sbrk.o
 .group         0x0000000000000000        0xc obj/_sbrk.o
 .group         0x0000000000000000        0xc obj/_sbrk.o
 .group         0x0000000000000000        0xc obj/_sbrk.o
 .group         0x0000000000000000        0xc obj/_sbrk.o
 .group         0x0000000000000000        0xc obj/_sbrk.o
 .group         0x0000000000000000        0xc obj/_sbrk.o
 .group         0x0000000000000000        0xc obj/_sbrk.o
 .group         0x0000000000000000        0xc obj/_sbrk.o
 .group         0x0000000000000000        0xc obj/_sbrk.o
 .group         0x0000000000000000        0xc obj/_sbrk.o
 .group         0x0000000000000000        0xc obj/_sbrk.o
 .group         0x0000000000000000        0xc obj/_sbrk.o
 .group         0x0000000000000000        0xc obj/_sbrk.o
 .group         0x0000000000000000        0xc obj/_sbrk.o
 .group         0x0000000000000000        0xc obj/_sbrk.o
 .group         0x0000000000000000        0xc obj/_sbrk.o
 .group         0x0000000000000000        0xc obj/_sbrk.o
 .group         0x0000000000000000        0xc obj/_sbrk.o
 .debug_macro   0x0000000000000000      0xa66 obj/_sbrk.o
 .debug_macro   0x0000000000000000       0x22 obj/_sbrk.o
 .debug_macro   0x0000000000000000       0x58 obj/_sbrk.o
 .debug_macro   0x0000000000000000       0x18 obj/_sbrk.o
 .debug_macro   0x0000000000000000       0x94 obj/_sbrk.o
 .debug_macro   0x0000000000000000       0x35 obj/_sbrk.o
 .debug_macro   0x0000000000000000       0x34 obj/_sbrk.o
 .debug_macro   0x0000000000000000       0x57 obj/_sbrk.o
 .debug_macro   0x0000000000000000      0x174 obj/_sbrk.o
 .debug_macro   0x0000000000000000      0x330 obj/_sbrk.o
 .debug_macro   0x0000000000000000       0x10 obj/_sbrk.o
 .debug_macro   0x0000000000000000       0x58 obj/_sbrk.o
 .debug_macro   0x0000000000000000       0x1f obj/_sbrk.o
 .debug_macro   0x0000000000000000       0x43 obj/_sbrk.o
 .debug_macro   0x0000000000000000       0x20 obj/_sbrk.o
 .debug_macro   0x0000000000000000       0x6a obj/_sbrk.o
 .debug_macro   0x0000000000000000       0x1c obj/_sbrk.o
 .debug_macro   0x0000000000000000       0x52 obj/_sbrk.o
 .debug_macro   0x0000000000000000       0x40 obj/_sbrk.o
 .debug_macro   0x0000000000000000       0x10 obj/_sbrk.o
 .debug_macro   0x0000000000000000       0x40 obj/_sbrk.o
 .debug_macro   0x0000000000000000       0xd7 obj/_sbrk.o
 .debug_macro   0x0000000000000000       0x1c obj/_sbrk.o
 .debug_macro   0x0000000000000000       0x3d obj/_sbrk.o
 .debug_macro   0x0000000000000000       0x10 obj/_sbrk.o
 .debug_macro   0x0000000000000000      0x18e obj/_sbrk.o
 .debug_macro   0x0000000000000000      0x23b obj/_sbrk.o
 .group         0x0000000000000000        0xc obj/system_MDR32F9Qx.o
 .group         0x0000000000000000        0xc obj/system_MDR32F9Qx.o
 .group         0x0000000000000000        0xc obj/system_MDR32F9Qx.o
 .group         0x0000000000000000        0xc obj/system_MDR32F9Qx.o
 .group         0x0000000000000000        0xc obj/system_MDR32F9Qx.o
 .group         0x0000000000000000        0xc obj/system_MDR32F9Qx.o
 .group         0x0000000000000000        0xc obj/system_MDR32F9Qx.o
 .group         0x0000000000000000        0xc obj/system_MDR32F9Qx.o
 .group         0x0000000000000000        0xc obj/system_MDR32F9Qx.o
 .group         0x0000000000000000        0xc obj/system_MDR32F9Qx.o
 .group         0x0000000000000000        0xc obj/system_MDR32F9Qx.o
 .group         0x0000000000000000        0xc obj/system_MDR32F9Qx.o
 .group         0x0000000000000000        0xc obj/system_MDR32F9Qx.o
 .group         0x0000000000000000        0xc obj/system_MDR32F9Qx.o
 .group         0x0000000000000000        0xc obj/system_MDR32F9Qx.o
 .debug_macro   0x0000000000000000      0xa66 obj/system_MDR32F9Qx.o
 .debug_macro   0x0000000000000000       0x22 obj/system_MDR32F9Qx.o
 .debug_macro   0x0000000000000000       0x22 obj/system_MDR32F9Qx.o
 .debug_macro   0x0000000000000000       0x8e obj/system_MDR32F9Qx.o
 .debug_macro   0x0000000000000000       0x51 obj/system_MDR32F9Qx.o
 .debug_macro   0x0000000000000000       0xef obj/system_MDR32F9Qx.o
 .debug_macro   0x0000000000000000       0x6a obj/system_MDR32F9Qx.o
 .debug_macro   0x0000000000000000      0x1df obj/system_MDR32F9Qx.o
 .debug_macro   0x0000000000000000       0x35 obj/system_MDR32F9Qx.o
 .debug_macro   0x0000000000000000       0x34 obj/system_MDR32F9Qx.o
 .debug_macro   0x0000000000000000     0x1dde obj/system_MDR32F9Qx.o
 .debug_macro   0x0000000000000000       0x10 obj/system_MDR32F9Qx.o
 .debug_macro   0x0000000000000000       0xc4 obj/system_MDR32F9Qx.o
 .group         0x0000000000000000        0xc obj/MDR32F9Qx_adc.o
 .group         0x0000000000000000        0xc obj/MDR32F9Qx_adc.o
 .group         0x0000000000000000        0xc obj/MDR32F9Qx_adc.o
 .group         0x0000000000000000        0xc obj/MDR32F9Qx_adc.o
 .group         0x0000000000000000        0xc obj/MDR32F9Qx_adc.o
 .group         0x0000000000000000        0xc obj/MDR32F9Qx_adc.o
 .group         0x0000000000000000        0xc obj/MDR32F9Qx_adc.o
 .group         0x0000000000000000        0xc obj/MDR32F9Qx_adc.o
 .group         0x0000000000000000        0xc obj/MDR32F9Qx_adc.o
 .group         0x0000000000000000        0xc obj/MDR32F9Qx_adc.o
 .group         0x0000000000000000        0xc obj/MDR32F9Qx_adc.o
 .group         0x0000000000000000        0xc obj/MDR32F9Qx_adc.o
 .group         0x0000000000000000        0xc obj/MDR32F9Qx_adc.o
 .group         0x0000000000000000        0xc obj/MDR32F9Qx_adc.o
 .group         0x0000000000000000        0xc obj/MDR32F9Qx_adc.o
 .group         0x0000000000000000        0xc obj/MDR32F9Qx_adc.o
 .debug_macro   0x0000000000000000      0xa66 obj/MDR32F9Qx_adc.o
 .debug_macro   0x0000000000000000       0x10 obj/MDR32F9Qx_adc.o
 .debug_macro   0x0000000000000000       0xc4 obj/MDR32F9Qx_adc.o
 .debug_macro   0x0000000000000000       0x22 obj/MDR32F9Qx_adc.o
 .debug_macro   0x0000000000000000       0x8e obj/MDR32F9Qx_adc.o
 .debug_macro   0x0000000000000000       0x51 obj/MDR32F9Qx_adc.o
 .debug_macro   0x0000000000000000       0xef obj/MDR32F9Qx_adc.o
 .debug_macro   0x0000000000000000       0x6a obj/MDR32F9Qx_adc.o
 .debug_macro   0x0000000000000000      0x1df obj/MDR32F9Qx_adc.o
 .debug_macro   0x0000000000000000       0x22 obj/MDR32F9Qx_adc.o
 .debug_macro   0x0000000000000000       0x3b obj/MDR32F9Qx_adc.o
 .debug_macro   0x0000000000000000       0x34 obj/MDR32F9Qx_adc.o
 .debug_macro   0x0000000000000000      0xcb4 obj/MDR32F9Qx_adc.o
 .debug_macro   0x0000000000000000     0x1dde obj/MDR32F9Qx_adc.o
 .debug_macro   0x0000000000000000       0x9e obj/MDR32F9Qx_adc.o
 .group         0x0000000000000000        0xc obj/MDR32F9Qx_port.o
 .group         0x0000000000000000        0xc obj/MDR32F9Qx_port.o
 .group         0x0000000000000000        0xc obj/MDR32F9Qx_port.o
 .group         0x0000000000000000        0xc obj/MDR32F9Qx_port.o
 .group         0x0000000000000000        0xc obj/MDR32F9Qx_port.o
 .group         0x0000000000000000        0xc obj/MDR32F9Qx_port.o
 .group         0x0000000000000000        0xc obj/MDR32F9Qx_port.o
 .group         0x0000000000000000        0xc obj/MDR32F9Qx_port.o
 .group         0x0000000000000000        0xc obj/MDR32F9Qx_port.o
 .group         0x0000000000000000        0xc obj/MDR32F9Qx_port.o
 .group         0x0000000000000000        0xc obj/MDR32F9Qx_port.o
 .group         0x0000000000000000        0xc obj/MDR32F9Qx_port.o
 .group         0x0000000000000000        0xc obj/MDR32F9Qx_port.o
 .group         0x0000000000000000        0xc obj/MDR32F9Qx_port.o
 .group         0x0000000000000000        0xc obj/MDR32F9Qx_port.o
 .group         0x0000000000000000        0xc obj/MDR32F9Qx_port.o
 .debug_macro   0x0000000000000000      0xa66 obj/MDR32F9Qx_port.o
 .debug_macro   0x0000000000000000       0x10 obj/MDR32F9Qx_port.o
 .debug_macro   0x0000000000000000       0xc4 obj/MDR32F9Qx_port.o
 .debug_macro   0x0000000000000000       0x22 obj/MDR32F9Qx_port.o
 .debug_macro   0x0000000000000000       0x8e obj/MDR32F9Qx_port.o
 .debug_macro   0x0000000000000000       0x51 obj/MDR32F9Qx_port.o
 .debug_macro   0x0000000000000000       0xef obj/MDR32F9Qx_port.o
 .debug_macro   0x0000000000000000       0x6a obj/MDR32F9Qx_port.o
 .debug_macro   0x0000000000000000      0x1df obj/MDR32F9Qx_port.o
 .debug_macro   0x0000000000000000       0x22 obj/MDR32F9Qx_port.o
 .debug_macro   0x0000000000000000       0x3b obj/MDR32F9Qx_port.o
 .debug_macro   0x0000000000000000       0x34 obj/MDR32F9Qx_port.o
 .debug_macro   0x0000000000000000      0xcb4 obj/MDR32F9Qx_port.o
 .debug_macro   0x0000000000000000     0x1dde obj/MDR32F9Qx_port.o
 .debug_macro   0x0000000000000000       0x9e obj/MDR32F9Qx_port.o
 .group         0x0000000000000000        0xc obj/MDR32F9Qx_rst_clk.o
 .group         0x0000000000000000        0xc obj/MDR32F9Qx_rst_clk.o
 .group         0x0000000000000000        0xc obj/MDR32F9Qx_rst_clk.o
 .group         0x0000000000000000        0xc obj/MDR32F9Qx_rst_clk.o
 .group         0x0000000000000000        0xc obj/MDR32F9Qx_rst_clk.o
 .group         0x0000000000000000        0xc obj/MDR32F9Qx_rst_clk.o
 .group         0x0000000000000000        0xc obj/MDR32F9Qx_rst_clk.o
 .group         0x0000000000000000        0xc obj/MDR32F9Qx_rst_clk.o
 .group         0x0000000000000000        0xc obj/MDR32F9Qx_rst_clk.o
 .group         0x0000000000000000        0xc obj/MDR32F9Qx_rst_clk.o
 .group         0x0000000000000000        0xc obj/MDR32F9Qx_rst_clk.o
 .group         0x0000000000000000        0xc obj/MDR32F9Qx_rst_clk.o
 .group         0x0000000000000000        0xc obj/MDR32F9Qx_rst_clk.o
 .group         0x0000000000000000        0xc obj/MDR32F9Qx_rst_clk.o
 .group         0x0000000000000000        0xc obj/MDR32F9Qx_rst_clk.o
 .group         0x0000000000000000        0xc obj/MDR32F9Qx_rst_clk.o
 .debug_macro   0x0000000000000000      0xa66 obj/MDR32F9Qx_rst_clk.o
 .debug_macro   0x0000000000000000       0x10 obj/MDR32F9Qx_rst_clk.o
 .debug_macro   0x0000000000000000       0xc4 obj/MDR32F9Qx_rst_clk.o
 .debug_macro   0x0000000000000000       0x22 obj/MDR32F9Qx_rst_clk.o
 .debug_macro   0x0000000000000000       0x8e obj/MDR32F9Qx_rst_clk.o
 .debug_macro   0x0000000000000000       0x51 obj/MDR32F9Qx_rst_clk.o
 .debug_macro   0x0000000000000000       0xef obj/MDR32F9Qx_rst_clk.o
 .debug_macro   0x0000000000000000       0x6a obj/MDR32F9Qx_rst_clk.o
 .debug_macro   0x0000000000000000      0x1df obj/MDR32F9Qx_rst_clk.o
 .debug_macro   0x0000000000000000       0x22 obj/MDR32F9Qx_rst_clk.o
 .debug_macro   0x0000000000000000       0x3b obj/MDR32F9Qx_rst_clk.o
 .debug_macro   0x0000000000000000       0x34 obj/MDR32F9Qx_rst_clk.o
 .debug_macro   0x0000000000000000      0xcb4 obj/MDR32F9Qx_rst_clk.o
 .debug_macro   0x0000000000000000     0x1dde obj/MDR32F9Qx_rst_clk.o
 .debug_macro   0x0000000000000000       0x9e obj/MDR32F9Qx_rst_clk.o
 .debug_macro   0x0000000000000000      0x542 obj/MDR32F9Qx_rst_clk.o
 .group         0x0000000000000000        0xc obj/MDR32F9Qx_timer.o
 .group         0x0000000000000000        0xc obj/MDR32F9Qx_timer.o
 .group         0x0000000000000000        0xc obj/MDR32F9Qx_timer.o
 .group         0x0000000000000000        0xc obj/MDR32F9Qx_timer.o
 .group         0x0000000000000000        0xc obj/MDR32F9Qx_timer.o
 .group         0x0000000000000000        0xc obj/MDR32F9Qx_timer.o
 .group         0x0000000000000000        0xc obj/MDR32F9Qx_timer.o
 .group         0x0000000000000000        0xc obj/MDR32F9Qx_timer.o
 .group         0x0000000000000000        0xc obj/MDR32F9Qx_timer.o
 .group         0x0000000000000000        0xc obj/MDR32F9Qx_timer.o
 .group         0x0000000000000000        0xc obj/MDR32F9Qx_timer.o
 .group         0x0000000000000000        0xc obj/MDR32F9Qx_timer.o
 .group         0x0000000000000000        0xc obj/MDR32F9Qx_timer.o
 .group         0x0000000000000000        0xc obj/MDR32F9Qx_timer.o
 .group         0x0000000000000000        0xc obj/MDR32F9Qx_timer.o
 .group         0x0000000000000000        0xc obj/MDR32F9Qx_timer.o
 .debug_macro   0x0000000000000000      0xa66 obj/MDR32F9Qx_timer.o
 .debug_macro   0x0000000000000000       0x10 obj/MDR32F9Qx_timer.o
 .debug_macro   0x0000000000000000       0xc4 obj/MDR32F9Qx_timer.o
 .debug_macro   0x0000000000000000       0x22 obj/MDR32F9Qx_timer.o
 .debug_macro   0x0000000000000000       0x8e obj/MDR32F9Qx_timer.o
 .debug_macro   0x0000000000000000       0x51 obj/MDR32F9Qx_timer.o
 .debug_macro   0x0000000000000000       0xef obj/MDR32F9Qx_timer.o
 .debug_macro   0x0000000000000000       0x6a obj/MDR32F9Qx_timer.o
 .debug_macro   0x0000000000000000      0x1df obj/MDR32F9Qx_timer.o
 .debug_macro   0x0000000000000000       0x22 obj/MDR32F9Qx_timer.o
 .debug_macro   0x0000000000000000       0x3b obj/MDR32F9Qx_timer.o
 .debug_macro   0x0000000000000000       0x34 obj/MDR32F9Qx_timer.o
 .debug_macro   0x0000000000000000      0xcb4 obj/MDR32F9Qx_timer.o
 .debug_macro   0x0000000000000000     0x1dde obj/MDR32F9Qx_timer.o
 .debug_macro   0x0000000000000000       0x9e obj/MDR32F9Qx_timer.o
 .group         0x0000000000000000        0xc obj/MDR32F9Qx_uart.o
 .group         0x0000000000000000        0xc obj/MDR32F9Qx_uart.o
 .group         0x0000000000000000        0xc obj/MDR32F9Qx_uart.o
 .group         0x0000000000000000        0xc obj/MDR32F9Qx_uart.o
 .group         0x0000000000000000        0xc obj/MDR32F9Qx_uart.o
 .group         0x0000000000000000        0xc obj/MDR32F9Qx_uart.o
 .group         0x0000000000000000        0xc obj/MDR32F9Qx_uart.o
 .group         0x0000000000000000        0xc obj/MDR32F9Qx_uart.o
 .group         0x0000000000000000        0xc obj/MDR32F9Qx_uart.o
 .group         0x0000000000000000        0xc obj/MDR32F9Qx_uart.o
 .group         0x0000000000000000        0xc obj/MDR32F9Qx_uart.o
 .group         0x0000000000000000        0xc obj/MDR32F9Qx_uart.o
 .group         0x0000000000000000        0xc obj/MDR32F9Qx_uart.o
 .group         0x0000000000000000        0xc obj/MDR32F9Qx_uart.o
 .group         0x0000000000000000        0xc obj/MDR32F9Qx_uart.o
 .group         0x0000000000000000        0xc obj/MDR32F9Qx_uart.o
 .group         0x0000000000000000        0xc obj/MDR32F9Qx_uart.o
 .debug_macro   0x0000000000000000      0xa66 obj/MDR32F9Qx_uart.o
 .debug_macro   0x0000000000000000       0x10 obj/MDR32F9Qx_uart.o
 .debug_macro   0x0000000000000000       0xc4 obj/MDR32F9Qx_uart.o
 .debug_macro   0x0000000000000000       0x22 obj/MDR32F9Qx_uart.o
 .debug_macro   0x0000000000000000       0x8e obj/MDR32F9Qx_uart.o
 .debug_macro   0x0000000000000000       0x51 obj/MDR32F9Qx_uart.o
 .debug_macro   0x0000000000000000       0xef obj/MDR32F9Qx_uart.o
 .debug_macro   0x0000000000000000       0x6a obj/MDR32F9Qx_uart.o
 .debug_macro   0x0000000000000000      0x1df obj/MDR32F9Qx_uart.o
 .debug_macro   0x0000000000000000       0x22 obj/MDR32F9Qx_uart.o
 .debug_macro   0x0000000000000000       0x3b obj/MDR32F9Qx_uart.o
 .debug_macro   0x0000000000000000       0x34 obj/MDR32F9Qx_uart.o
 .debug_macro   0x0000000000000000      0xcb4 obj/MDR32F9Qx_uart.o
 .debug_macro   0x0000000000000000     0x1dde obj/MDR32F9Qx_uart.o
 .debug_macro   0x0000000000000000       0x9e obj/MDR32F9Qx_uart.o
 .debug_macro   0x0000000000000000      0x542 obj/MDR32F9Qx_uart.o
 .group         0x0000000000000000        0xc obj/MDR32F9Qx_ebc.o
 .group         0x0000000000000000        0xc obj/MDR32F9Qx_ebc.o
 .group         0x0000000000000000        0xc obj/MDR32F9Qx_ebc.o
 .group         0x0000000000000000        0xc obj/MDR32F9Qx_ebc.o
 .group         0x0000000000000000        0xc obj/MDR32F9Qx_ebc.o
 .group         0x0000000000000000        0xc obj/MDR32F9Qx_ebc.o
 .group         0x0000000000000000        0xc obj/MDR32F9Qx_ebc.o
 .group         0x0000000000000000        0xc obj/MDR32F9Qx_ebc.o
 .group         0x0000000000000000        0xc obj/MDR32F9Qx_ebc.o
 .group         0x0000000000000000        0xc obj/MDR32F9Qx_ebc.o
 .group         0x0000000000000000        0xc obj/MDR32F9Qx_ebc.o
 .group         0x0000000000000000        0xc obj/MDR32F9Qx_ebc.o
 .group         0x0000000000000000        0xc obj/MDR32F9Qx_ebc.o
 .group         0x0000000000000000        0xc obj/MDR32F9Qx_ebc.o
 .group         0x0000000000000000        0xc obj/MDR32F9Qx_ebc.o
 .group         0x0000000000000000        0xc obj/MDR32F9Qx_ebc.o
 .debug_macro   0x0000000000000000      0xa66 obj/MDR32F9Qx_ebc.o
 .debug_macro   0x0000000000000000       0x10 obj/MDR32F9Qx_ebc.o
 .debug_macro   0x0000000000000000       0xc4 obj/MDR32F9Qx_ebc.o
 .debug_macro   0x0000000000000000       0x22 obj/MDR32F9Qx_ebc.o
 .debug_macro   0x0000000000000000       0x8e obj/MDR32F9Qx_ebc.o
 .debug_macro   0x0000000000000000       0x51 obj/MDR32F9Qx_ebc.o
 .debug_macro   0x0000000000000000       0xef obj/MDR32F9Qx_ebc.o
 .debug_macro   0x0000000000000000       0x6a obj/MDR32F9Qx_ebc.o
 .debug_macro   0x0000000000000000      0x1df obj/MDR32F9Qx_ebc.o
 .debug_macro   0x0000000000000000       0x22 obj/MDR32F9Qx_ebc.o
 .debug_macro   0x0000000000000000       0x3b obj/MDR32F9Qx_ebc.o
 .debug_macro   0x0000000000000000       0x34 obj/MDR32F9Qx_ebc.o
 .debug_macro   0x0000000000000000      0xcb4 obj/MDR32F9Qx_ebc.o
 .debug_macro   0x0000000000000000     0x1dde obj/MDR32F9Qx_ebc.o
 .debug_macro   0x0000000000000000       0x9e obj/MDR32F9Qx_ebc.o

Memory Configuration

Name             Origin             Length             Attributes
FLASH            0x0000000008000000 0x0000000000020000 xr
RAM              0x0000000020000000 0x0000000000008000 xrw
*default*        0x0000000000000000 0xffffffffffffffff

Linker script and memory map

LOAD obj/blink_app.o
LOAD obj/main.o
LOAD obj/common.o
LOAD obj/scheduler.o
LOAD obj/task.o
LOAD obj/version.o
LOAD obj/application.o
LOAD obj/event.o
LOAD obj/buffer.o
LOAD obj/memory_management_operators.o
LOAD obj/memory_manager.o
LOAD obj/profiler.o
LOAD obj/semaphore.o
LOAD obj/mutex.o
LOAD obj/critical_section.o
LOAD obj/_cxx.o
LOAD obj/timer.o
LOAD obj/system.o
LOAD obj/cortex_m.o
LOAD obj/vectors.o
LOAD obj/exception_handlers.o
LOAD obj/initialize_hardware.o
LOAD obj/reset_hardware.o
LOAD obj/startup.o
LOAD obj/_syscalls.o
LOAD obj/_exit.o
LOAD obj/_sbrk.o
LOAD obj/system_MDR32F9Qx.o
LOAD obj/MDR32F9Qx_adc.o
LOAD obj/MDR32F9Qx_port.o
LOAD obj/MDR32F9Qx_rst_clk.o
LOAD obj/MDR32F9Qx_timer.o
LOAD obj/MDR32F9Qx_uart.o
LOAD obj/MDR32F9Qx_ebc.o
LOAD obj/svc_handler.o
LOAD obj/hard_fault_handler.o
LOAD obj/mpu_fault_handler.o
LOAD obj/svc_exec_privileged.o
LOAD obj/pendsv_handler.o
LOAD /usr/bin/../lib/gcc/arm-none-eabi/7.3.1/../../../../arm-none-eabi/lib/thumb/v7-m/libstdc++_nano.a
LOAD /usr/bin/../lib/gcc/arm-none-eabi/7.3.1/../../../../arm-none-eabi/lib/thumb/v7-m/libm.a
START GROUP
LOAD /usr/bin/../lib/gcc/arm-none-eabi/7.3.1/thumb/v7-m/libgcc.a
LOAD /usr/bin/../lib/gcc/arm-none-eabi/7.3.1/../../../../arm-none-eabi/lib/thumb/v7-m/libg_nano.a
LOAD /usr/bin/../lib/gcc/arm-none-eabi/7.3.1/../../../../arm-none-eabi/lib/thumb/v7-m/libc_nano.a
END GROUP
START GROUP
LOAD /usr/bin/../lib/gcc/arm-none-eabi/7.3.1/thumb/v7-m/libgcc.a
LOAD /usr/bin/../lib/gcc/arm-none-eabi/7.3.1/../../../../arm-none-eabi/lib/thumb/v7-m/libc_nano.a
END GROUP
                0x0000000020008000                __stack = (ORIGIN (RAM) + LENGTH (RAM))
                0x0000000000000400                __Main_Stack_Size = 0x400
                [!provide]                        PROVIDE (_Main_Stack_Size = __Main_Stack_Size)
                0x0000000020007c00                __Main_Stack_Limit = (__stack - __Main_Stack_Size)
                [!provide]                        PROVIDE (_Main_Stack_Limit = __Main_Stack_Limit)
                0x0000000000000100                _Minimum_Stack_Size = 0x100
                0x0000000020000290                PROVIDE (_Heap_Begin = _end_noinit)
                0x0000000020007c00                PROVIDE (_Heap_Limit = (__stack - __Main_Stack_Size))

.isr_vector     0x0000000008000000      0x1e8
 FILL mask 0xff
                0x0000000008000000                __vectors_start = ABSOLUTE (.)
                0x0000000008000000                __vectors_start__ = ABSOLUTE (.)
 *(.isr_vector)
 .isr_vector    0x0000000008000000       0xc0 obj/vectors.o
                0x0000000008000000                __isr_vectors
 *(.cfmconfig)
 *(.after_vectors .after_vectors.*)
 .after_vectors
                0x00000000080000c0        0x2 obj/vectors.o
                0x00000000080000c0                UART1_IRQHandler
                0x00000000080000c0                FLEXRAY_IRQHandler
                0x00000000080000c0                UART0_IRQHandler
                0x00000000080000c0                MCIB_IRQHandler
                0x00000000080000c0                AACI_IRQHandler
                0x00000000080000c0                CAN_IRQHandler
                0x00000000080000c0                CHLCD_IRQHandler
                0x00000000080000c0                USBDC_IRQHandler
                0x00000000080000c0                USBHC_IRQHandler
                0x00000000080000c0                RTC_IRQHandler
                0x00000000080000c0                SPI_IRQHandler
                0x00000000080000c0                UART2_IRQHandler
                0x00000000080000c0                UART4_IRQHandler
                0x00000000080000c0                Default_Handler
                0x00000000080000c0                CLCD_IRQHandler
                0x00000000080000c0                TIM0_IRQHandler
                0x00000000080000c0                I2C_IRQHandler
                0x00000000080000c0                WDT_IRQHandler
                0x00000000080000c0                TIM2_IRQHandler
                0x00000000080000c0                LIN_IRQHandler
                0x00000000080000c0                CPU_CLCD_IRQHandler
                0x00000000080000c0                UART3_IRQHandler
                0x00000000080000c0                MCIA_IRQHandler
                0x00000000080000c0                ENET_IRQHandler
 *fill*         0x00000000080000c2        0x2 ff
 .after_vectors
                0x00000000080000c4       0x64 obj/exception_handlers.o
                0x00000000080000c4                Reset_Handler
                0x00000000080000de                HardFault_Handler_C
                0x00000000080000e2                BusFault_Handler
                0x00000000080000f6                BusFault_Handler_C
                0x00000000080000f8                UsageFault_Handler
                0x000000000800010c                UsageFault_Handler_C
                0x0000000008000110                DebugMon_Handler
 .after_vectors
                0x0000000008000128       0xc0 obj/startup.o
                0x0000000008000128                _start

.inits          0x00000000080001e8       0x24
                0x00000000080001e8                __data_regions_array_start = .
                0x00000000080001e8        0x4 LONG 0x8007df4 LOADADDR (.data)
                0x00000000080001ec        0x4 LONG 0x20000000 ADDR (.data)
                0x00000000080001f0        0x4 LONG 0x200000bc (ADDR (.data) + SIZEOF (.data))
                0x00000000080001f4                __data_regions_array_end = .
                0x00000000080001f4                __bss_regions_array_start = .
                0x00000000080001f4        0x4 LONG 0x200000bc ADDR (.bss)
                0x00000000080001f8        0x4 LONG 0x20000290 (ADDR (.bss) + SIZEOF (.bss))
                0x00000000080001fc                __bss_regions_array_end = .
 *(.init)
 *(.fini)
                0x00000000080001fc                . = ALIGN (0x4)
                0x00000000080001fc                PROVIDE (__preinit_array_start = .)
 *(.preinit_array_sysinit .preinit_array_sysinit.*)
 *(.preinit_array_platform .preinit_array_platform.*)
 *(.preinit_array .preinit_array.*)
                0x00000000080001fc                PROVIDE (__preinit_array_end = .)
                0x00000000080001fc                . = ALIGN (0x4)
                0x00000000080001fc                PROVIDE (__init_array_start = .)
 *(SORT_BY_NAME(.init_array.*))
 *(.init_array)
 .init_array    0x00000000080001fc        0x4 obj/blink_app.o
 .init_array    0x0000000008000200        0x4 obj/common.o
 .init_array    0x0000000008000204        0x4 obj/scheduler.o
 .init_array    0x0000000008000208        0x4 obj/cortex_m.o
                0x000000000800020c                PROVIDE (__init_array_end = .)
                0x000000000800020c                . = ALIGN (0x4)
                0x000000000800020c                PROVIDE (__fini_array_start = .)
 *(SORT_BY_NAME(.fini_array.*))
 *(.fini_array)
                0x000000000800020c                PROVIDE (__fini_array_end = .)

.text           0x0000000008000210     0x7207
 *(.text .text.*)
 .text          0x0000000008000210       0xe8 obj/blink_app.o
                0x0000000008000210                BlinkApp::Initialize()
 .text._ZN7LedTask7ExecuteEv
                0x00000000080002f8       0x40 obj/blink_app.o
                0x00000000080002f8                LedTask::Execute()
 .text._ZN7LedTaskD2Ev
                0x0000000008000338       0x14 obj/blink_app.o
                0x0000000008000338                LedTask::~LedTask()
                0x0000000008000338                LedTask::~LedTask()
 .text._ZN7LedTaskD0Ev
                0x000000000800034c       0x1c obj/blink_app.o
                0x000000000800034c                LedTask::~LedTask()
 .text._ZN8BlinkAppD2Ev
                0x0000000008000368       0x14 obj/blink_app.o
                0x0000000008000368                BlinkApp::~BlinkApp()
                0x0000000008000368                BlinkApp::~BlinkApp()
 .text._ZN8BlinkAppD0Ev
                0x000000000800037c       0x1c obj/blink_app.o
                0x000000000800037c                BlinkApp::~BlinkApp()
 .text          0x0000000008000398       0x44 obj/main.o
                0x0000000008000398                main
 .text          0x00000000080003dc      0x3b4 obj/common.o
                0x000000000800041c                GetResultStr
                0x00000000080004b4                macs::RandN(int)
                0x00000000080004f0                macs::Sprintf(char*, unsigned int, char const*, ...)
                0x0000000008000524                macs::PrnFmt::PrnFmt(char const*, ...)
                0x0000000008000524                macs::PrnFmt::PrnFmt(char const*, ...)
                0x0000000008000594                macs::PrnFmt::~PrnFmt()
                0x0000000008000594                macs::PrnFmt::~PrnFmt()
                0x00000000080005a8                macs::String::Add(char const*, unsigned int)
                0x00000000080005fc                macs::MsToTicks(unsigned long)
                0x0000000008000618                macs::TicksToUs(unsigned long)
                0x0000000008000630                StackPtr::GetVirginLen(unsigned long*, unsigned long*)
                0x0000000008000658                StackPtr::FillWithMark(unsigned long*, unsigned long*)
                0x000000000800066c                TaskStack::Check()
                0x00000000080006c4                TaskStack::Free()
                0x00000000080006e2                TaskStack::Build(unsigned int, unsigned long*)
                0x000000000800071a                TaskStack::Prepare(unsigned int, void*, void (*)(), void (*)())
                0x0000000008000746                SchedulerSwitchContext
                0x0000000008000758                SystemBase::AskCurCpuTick()
 .text          0x0000000008000790      0xc10 obj/scheduler.o
                0x0000000008000790                macs::Scheduler::~Scheduler()
                0x0000000008000790                macs::Scheduler::~Scheduler()
                0x0000000008000792                macs::Read_Cpu_Tick_Priv()
                0x000000000800079a                macs::BlockCurrentTask_Priv(macs::Scheduler*, unsigned long, macs::Task::UnblockFunctor*)
                0x0000000008000880                macs::AddTaskIrq_Priv(macs::Scheduler*, macs::TaskIrq*)
                0x00000000080008c0                macs::DeleteTask_Priv(macs::Scheduler*, macs::Task*, bool)
                0x0000000008000994                macs::Scheduler::Scheduler()
                0x0000000008000994                macs::Scheduler::Scheduler()
                0x00000000080009e8                macs::Scheduler::ForceContextSwitch()
                0x00000000080009f0                macs::Scheduler::DeleteTask(macs::Task*, bool)
                0x0000000008000a38                macs::Scheduler::BlockCurrentTask(unsigned long, macs::Task::UnblockFunctor*)
                0x0000000008000a7e                macs::Scheduler::UnblockTaskInternal(macs::Task*, macs::Task::UnblockReason)
                0x0000000008000ac8                macs::UnblockTask_Priv(macs::Scheduler*, macs::Task*)
                0x0000000008000b68                macs::Scheduler::UnblockTask(macs::Task*)
                0x0000000008000bb0                macs::Scheduler::IsPriorityValid(macs::Task::Priority)
                0x0000000008000bba                macs::Scheduler::AddTask(macs::TaskIrq*, int, macs::Task::Priority, macs::Task::Mode, unsigned int)
                0x0000000008000c3c                macs::Scheduler::TuneProfiler()
                0x0000000008000c3e                macs::Scheduler::IsContextSwitchRequired()
                0x0000000008000c6a                macs::Yield_Priv(macs::Scheduler*)
                0x0000000008000ccc                macs::Scheduler::Pause(bool)
                0x0000000008000d60                macs::_SetTaskPriority_Priv(macs::Scheduler*, macs::Task*, macs::Task::Priority)
                0x0000000008000d9c                macs::AddTask_Priv(macs::Scheduler*, macs::Task*)
                0x0000000008000e30                macs::Scheduler::AddTask(macs::Task*, macs::Task::Priority, macs::Task::Mode, unsigned int)
                0x0000000008000eac                macs::Scheduler::Initialize()
                0x0000000008000f30                macs::IntSetTaskPriority_Priv(macs::Scheduler*, macs::Task*, macs::Task::Priority, bool)
                0x0000000008001010                macs::SetTaskPriority_Priv(macs::Scheduler*, macs::Task*, macs::Task::Priority)
                0x000000000800101a                macs::Scheduler::SetTaskPriority(macs::Task*, macs::Task::Priority)
                0x0000000008001074                macs::Scheduler::SelectNextTask()
                0x00000000080010c6                macs::Scheduler::Start(bool)
                0x000000000800111c                macs::TaskIrqRoom::ProceedIrq(int)
                0x000000000800118c                MacsIrqHandler
                0x00000000080011e4                macs::TaskIrqRoom::ActivateTasks()
                0x0000000008001238                macs::Scheduler::SwitchContext(StackPtr)
                0x00000000080012b4                macs::Scheduler::GetTasksQty()
                0x00000000080012dc                macs::TaskSleepRoom::Tick()
                0x00000000080012f4                macs::Scheduler::SysTickHandler()
                0x0000000008001380                SchedulerSysTickHandler
 .text._ZN4macs8IdleTask7ExecuteEv
                0x00000000080013a0        0x2 obj/scheduler.o
                0x00000000080013a0                macs::IdleTask::Execute()
 *fill*         0x00000000080013a2        0x2 
 .text._ZN4macs8IdleTaskD2Ev
                0x00000000080013a4       0x14 obj/scheduler.o
                0x00000000080013a4                macs::IdleTask::~IdleTask()
                0x00000000080013a4                macs::IdleTask::~IdleTask()
 .text._ZN4macs8IdleTaskD0Ev
                0x00000000080013b8       0x1c obj/scheduler.o
                0x00000000080013b8                macs::IdleTask::~IdleTask()
 .text          0x00000000080013d4      0x5ac obj/task.o
                0x00000000080013d4                macs::SyncObject::OnDeleteTask(macs::Task*)
                0x00000000080013ec                macs::Task::Init(char const*, unsigned int, unsigned long*)
                0x0000000008001436                macs::Task::~Task()
                0x0000000008001436                macs::Task::~Task()
                0x000000000800146c                macs::Task::~Task()
                0x000000000800147e                macs::Task::InitializeStack(unsigned int, void (*)())
                0x0000000008001498                macs::Task::Add(macs::Task*, macs::Task::Priority, macs::Task::Mode, unsigned int)
                0x00000000080014b4                macs::Task::Remove()
                0x00000000080014c8                macs::Task::Delete()
                0x00000000080014dc                macs::Task::Delay(unsigned long)
                0x00000000080014f0                macs::TaskIrq::Execute()
                0x0000000008001506                macs::Task::CpuDelay(unsigned long)
                0x0000000008001520                macs::Task::SetPriority(macs::Task::Priority)
                0x0000000008001534                macs::Task::GetCurrent()
                0x0000000008001540                macs::Task::Yield()
                0x0000000008001578                macs::Task::SetBlockSync(macs::SyncObject*)
                0x000000000800157c                macs::SyncObject::BlockCurTask(unsigned long)
                0x00000000080015b4                macs::Task::AddOwnedSync(macs::SyncOwnedObject*)
                0x00000000080015bc                macs::Task::DropBlockSync(macs::SyncObject*)
                0x00000000080015c2                macs::SyncObject::UnblockTask()
                0x00000000080015e4                macs::SyncObject::OnUnblockTask(macs::Task*, macs::Task::UnblockReason)
                0x000000000800160e                macs::Task::RemoveOwnedSync(macs::SyncOwnedObject*)
                0x0000000008001626                macs::Task::DetachFromSync()
                0x000000000800164a                macs::PrintPriority(macs::String&, macs::Task::Priority, bool)
                0x00000000080018e4                macs::SyncObject::DropLinks()
                0x00000000080018fa                macs::TaskIrq::TaskIrq(char const*)
                0x00000000080018fa                macs::TaskIrq::TaskIrq(char const*)
                0x0000000008001944                macs::TaskIrq::Add(macs::TaskIrq*, int, macs::Task::Priority, macs::Task::Mode, unsigned int)
                0x0000000008001964                MacsGetTickCount
                0x0000000008001970                MacsDelay
                0x0000000008001978                MacsCpuDelay
 .text._ZN4macs4Task8Execute_EPS0_
                0x0000000008001980       0x12 obj/task.o
                0x0000000008001980                macs::Task::Execute_(macs::Task*)
 *fill*         0x0000000008001992        0x2 
 .text          0x0000000008001994        0x8 obj/version.o
                0x0000000008001994                macs::GetVersion()
 .text          0x000000000800199c      0x248 obj/application.o
                0x000000000800199c                macs::Application::~Application()
                0x000000000800199c                macs::Application::~Application()
                0x000000000800199e                macs::Application::OnAlarm(macs::ALARM_REASON)
                0x00000000080019aa                macs::Application::~Application()
                0x00000000080019b6                macs::Application::Application(bool)
                0x00000000080019b6                macs::Application::Application(bool)
                0x00000000080019cc                macs::Application::Run()
                0x00000000080019f4                MacsInit
                0x0000000008001a08                HAL_GetTick
                0x0000000008001a14                Hard_Fault_Handler_C
                0x0000000008001b88                NMI_Handler
                0x0000000008001b9c                MemManage_Handler_C
 .text._ZN4macs11Application10InitializeEv
                0x0000000008001be4        0x2 obj/application.o
                0x0000000008001be4                macs::Application::Initialize()
 *fill*         0x0000000008001be6        0x2 
 .text          0x0000000008001be8      0x180 obj/event.o
                0x0000000008001be8                macs::Event::Event(bool)
                0x0000000008001be8                macs::Event::Event(bool)
                0x0000000008001bf8                macs::Event::~Event()
                0x0000000008001bf8                macs::Event::~Event()
                0x0000000008001bfa                macs::Event::Raise_Priv(macs::Event*)
                0x0000000008001c54                macs::Event::Raise()
                0x0000000008001ca4                macs::Event::Wait_Priv(macs::Event*, unsigned long)
                0x0000000008001d00                macs::Event::Wait(unsigned long)
 .text          0x0000000008001d68      0x230 obj/buffer.o
                0x0000000008001d68                macs::Buf::operator==(macs::Buf const&) const
                0x0000000008001d8e                macs::Buf::Alloc(unsigned int, unsigned int)
                0x0000000008001e00                macs::Buf::Free()
                0x0000000008001e38                macs::Buf::Read(unsigned char*, unsigned int, bool)
                0x0000000008001e62                macs::Buf::Add(unsigned char const*, unsigned int)
                0x0000000008001e82                macs::Buf::Trans(macs::Buf&, unsigned int)
                0x0000000008001ea0                macs::Buf::Copy(unsigned char const*, unsigned int)
                0x0000000008001ec2                macs::Buf::Grab(unsigned char*, unsigned int, bool)
                0x0000000008001f1a                macs::Buf::Grab(macs::Buf&, bool)
 .text          0x0000000008001f98       0xa0 obj/memory_management_operators.o
                0x0000000008001f98                operator new(unsigned int, std::nothrow_t const&)
                0x0000000008001fb0                operator delete(void*, std::nothrow_t const&)
                0x0000000008001fc8                operator new(unsigned int)
                0x0000000008001fd0                operator delete(void*)
                0x0000000008001fe8                operator new[](unsigned int, std::nothrow_t const&)
                0x0000000008002000                operator delete[](void*, std::nothrow_t const&)
                0x0000000008002018                operator new[](unsigned int)
                0x0000000008002020                operator delete[](void*)
 .text          0x0000000008002038      0x154 obj/memory_manager.o
                0x0000000008002038                MemoryManager::LogAllocatedSize()
                0x000000000800203a                MemoryManager::MemAlloc(unsigned int)
                0x0000000008002042                MemoryManager::MemFree(void*)
                0x000000000800204a                MemoryManager::Allocate(unsigned int)
                0x00000000080020fc                MemoryManager::Deallocate(void*)
 .text._ZN13MemoryManager10InitializeILm16384EEEvv
                0x000000000800218c       0x14 obj/memory_manager.o
                0x000000000800218c                void MemoryManager::Initialize<16384ul>()
 .text          0x00000000080021a0        0x0 obj/profiler.o
 .text          0x00000000080021a0      0x1bc obj/semaphore.o
                0x00000000080021a0                macs::Semaphore::Semaphore(unsigned int, unsigned int)
                0x00000000080021a0                macs::Semaphore::Semaphore(unsigned int, unsigned int)
                0x00000000080021b8                macs::Semaphore::~Semaphore()
                0x00000000080021b8                macs::Semaphore::~Semaphore()
                0x00000000080021ba                macs::Semaphore::Wait_Priv(macs::Semaphore*, unsigned long)
                0x000000000800222c                macs::Semaphore::Wait(unsigned long)
                0x00000000080022a0                macs::Semaphore::Signal_Priv(macs::Semaphore*)
                0x000000000800230c                macs::Semaphore::Signal()
 .text          0x000000000800235c      0x354 obj/mutex.o
                0x000000000800235c                macs::Mutex::UnblockTask()
                0x0000000008002388                macs::Mutex::~Mutex()
                0x0000000008002388                macs::Mutex::~Mutex()
                0x00000000080023cc                macs::Mutex::Lock_Priv(macs::Mutex*, unsigned long)
                0x000000000800249c                macs::Mutex::Lock(unsigned long)
                0x00000000080024ea                macs::Mutex::Unlock_Priv(macs::Mutex*)
                0x00000000080025a4                macs::Mutex::Unlock()
                0x00000000080025da                macs::Mutex::UpdateOwnerPriority()
                0x0000000008002600                macs::Mutex::OnUnblockTask(macs::Task*, macs::Task::UnblockReason)
                0x0000000008002624                macs::Mutex::UnlockInternal()
                0x0000000008002678                macs::Mutex::BlockCurTask(unsigned long)
                0x000000000800268c                macs::Mutex::OnDeleteTask(macs::Task*)
 .text          0x00000000080026b0        0x0 obj/critical_section.o
 .text          0x00000000080026b0        0xc obj/_cxx.o
                0x00000000080026b0                __gnu_cxx::__verbose_terminate_handler()
                0x00000000080026b6                __cxa_pure_virtual
 .text          0x00000000080026bc        0x0 obj/timer.o
 .text          0x00000000080026bc        0x4 obj/system.o
                0x00000000080026bc                System::InitCpu()
                0x00000000080026be                System::HardFaultHandler()
 .text          0x00000000080026c0      0x338 obj/cortex_m.o
                0x00000000080026ec                SystemBase::DisableIrq()
                0x0000000008002700                SystemBase::EnableIrq(unsigned long)
                0x000000000800270e                SystemBase::SetTickRate(unsigned long)
                0x0000000008002750                SystemBase::InitScheduler()
                0x0000000008002774                SystemBase::SwitchContext()
                0x000000000800278c                SystemBase::GetCurCpuTick()
                0x0000000008002798                SystemBase::SetCurCpuTick(unsigned long)
                0x00000000080027a4                SystemBase::SetIrqPriority(int, unsigned int)
                0x00000000080027d0                SystemBase::IsInInterrupt()
                0x00000000080027dc                SystemBase::CurIrqNum()
                0x00000000080027e4                SystemBase::IsInSysCall()
                0x00000000080027f6                SystemBase::IsInPrivMode()
                0x0000000008002806                SystemBase::IsSysCallAllowed()
                0x0000000008002854                SystemBase::IsInMspMode()
                0x0000000008002864                SystemBase::GetMsp()
                0x000000000800286a                SystemBase::SetPsp(StackPtr)
                0x0000000008002878                SystemBase::SetPrivMode(bool)
                0x000000000800288e                SystemBase::FirstSwitchToTask(StackPtr, bool)
                0x00000000080028a4                SystemBase::McuReset()
                0x00000000080028c8                SystemBase::InternalSwitchContext()
                0x00000000080028ec                SystemBase::EnterSleepMode()
                0x00000000080028f4                StackPtr::Check(StackPtr, unsigned int)
                0x0000000008002924                StackPtr::Instrument(StackPtr, bool)
                0x0000000008002940                TaskStack::PreparePlatformSpecific(unsigned int, void*, void (*)(), void (*)())
                0x000000000800297c                TaskStack::BuildPlatformSpecific(unsigned int, unsigned int)
                0x00000000080029cc                StackPtr::GetVirginLen(StackPtr) const
                0x00000000080029da                SysTick_Handler
 .text          0x00000000080029f8        0x0 obj/vectors.o
 .text          0x00000000080029f8        0x0 obj/exception_handlers.o
 .text          0x00000000080029f8       0x20 obj/initialize_hardware.o
                0x00000000080029f8                __initialize_hardware_early
                0x0000000008002a10                __initialize_hardware
 .text          0x0000000008002a18       0x24 obj/reset_hardware.o
                0x0000000008002a18                __reset_hardware
 .text          0x0000000008002a3c       0x8c obj/startup.o
                0x0000000008002a3c                __initialize_data
                0x0000000008002a4c                __initialize_bss
                0x0000000008002a5a                __run_init_array
                0x0000000008002aa4                __run_fini_array
 .text          0x0000000008002ac8      0x170 obj/_syscalls.o
                0x0000000008002ac8                __initialize_args
                0x0000000008002ad8                raise
                0x0000000008002ae8                kill
                0x0000000008002af8                _chown
                0x0000000008002b08                _close
                0x0000000008002b18                _execve
                0x0000000008002b28                _fork
                0x0000000008002b38                _fstat
                0x0000000008002b48                _getpid
                0x0000000008002b58                _gettimeofday
                0x0000000008002b68                _isatty
                0x0000000008002b76                _kill
                0x0000000008002b86                _link
                0x0000000008002b96                _lseek
                0x0000000008002ba6                _open
                0x0000000008002bb6                _read
                0x0000000008002bc6                _readlink
                0x0000000008002bd6                _stat
                0x0000000008002be6                _symlink
                0x0000000008002bf6                _times
                0x0000000008002c06                _unlink
                0x0000000008002c16                _wait
                0x0000000008002c26                _write
 .text          0x0000000008002c38        0xe obj/_exit.o
                0x0000000008002c38                _exit
                0x0000000008002c3e                abort
 *fill*         0x0000000008002c46        0x2 
 .text          0x0000000008002c48       0x44 obj/_sbrk.o
                0x0000000008002c48                _sbrk
 .text          0x0000000008002c8c       0xa8 obj/system_MDR32F9Qx.o
                0x0000000008002c8c                SystemCoreClockUpdate
                0x0000000008002d08                SystemInit
 .text          0x0000000008002d34      0x430 obj/MDR32F9Qx_adc.o
                0x0000000008002d34                ADC_DeInit
                0x0000000008002d58                ADC_Init
                0x0000000008002d8c                ADC_StructInit
                0x0000000008002d9e                ADC_SetTrim
                0x0000000008002db4                ADC1_Init
                0x0000000008002e0c                ADC2_Init
                0x0000000008002e5c                ADCx_StructInit
                0x0000000008002e78                ADC1_Cmd
                0x0000000008002e94                ADC2_Cmd
                0x0000000008002eb0                ADC1_SetChannel
                0x0000000008002ec4                ADC2_SetChannel
                0x0000000008002ed8                ADC1_SetChannels
                0x0000000008002ee4                ADC2_SetChannels
                0x0000000008002ef0                ADC1_OperationModeConfig
                0x0000000008002f04                ADC2_OperationModeConfig
                0x0000000008002f18                ADC1_SamplingModeConfig
                0x0000000008002f2c                ADC2_SamplingModeConfig
                0x0000000008002f40                ADC1_ChannelSwithingConfig
                0x0000000008002f54                ADC2_ChannelSwithingConfig
                0x0000000008002f68                ADC1_LevelsConfig
                0x0000000008002f84                ADC2_LevelsConfig
                0x0000000008002fa0                ADC1_SetLowLevel
                0x0000000008002fac                ADC2_SetLowLevel
                0x0000000008002fb8                ADC1_SetHighLevel
                0x0000000008002fc4                ADC2_SetHighLevel
                0x0000000008002fd0                ADC1_Start
                0x0000000008002fe0                ADC2_Start
                0x0000000008002ff0                ADC1_GetResult
                0x0000000008002ffc                ADC2_GetResult
                0x0000000008003008                ADC_GetStatus
                0x0000000008003018                ADC1_GetStatus
                0x0000000008003024                ADC2_GetStatus
                0x0000000008003030                ADC_GetFlagStatus
                0x0000000008003044                ADC1_GetFlagStatus
                0x0000000008003058                ADC2_GetFlagStatus
                0x000000000800306c                ADC1_ClearOverwriteFlag
                0x000000000800307c                ADC2_ClearOverwriteFlag
                0x000000000800308c                ADC1_ClearOutOfRangeFlag
                0x000000000800309c                ADC2_ClearOutOfRangeFlag
                0x00000000080030ac                ADC_ITConfig
                0x00000000080030e4                ADC1_ITConfig
                0x0000000008003100                ADC2_ITConfig
                0x000000000800311c                ADC_GetITStatus
                0x0000000008003134                ADC1_GetITStatus
                0x000000000800314c                ADC2_GetITStatus
 .text          0x0000000008003164      0x1f4 obj/MDR32F9Qx_port.o
                0x0000000008003164                PORT_DeInit
                0x0000000008003178                PORT_Init
                0x00000000080032a8                PORT_StructInit
                0x00000000080032c4                PORT_ReadInputDataBit
                0x00000000080032d2                PORT_ReadInputData
                0x00000000080032d6                PORT_SetBits
                0x00000000080032f4                PORT_ResetBits
                0x0000000008003310                PORT_WriteBit
                0x000000000800333c                PORT_Write
 .text          0x0000000008003358      0x53c obj/MDR32F9Qx_rst_clk.o
                0x0000000008003358                RST_CLK_HSEconfig
                0x0000000008003388                RST_CLK_LSEconfig
                0x00000000080033b8                RST_CLK_HSIcmd
                0x00000000080033c4                RST_CLK_HSIadjust
                0x00000000080033d8                RST_CLK_LSIcmd
                0x00000000080033e4                RST_CLK_LSIadjust
                0x00000000080033f8                RST_CLK_CPU_PLLconfig
                0x0000000008003430                RST_CLK_CPU_PLLuse
                0x000000000800343c                RST_CLK_CPU_PLLcmd
                0x0000000008003448                RST_CLK_CPUclkPrescaler
                0x000000000800345c                RST_CLK_CPUclkSelection
                0x0000000008003470                RST_CLK_USB_PLLconfig
                0x00000000080034a8                RST_CLK_USB_PLLuse
                0x00000000080034b4                RST_CLK_USB_PLLcmd
                0x00000000080034c0                RST_CLK_USBclkPrescaler
                0x00000000080034cc                RST_CLK_USBclkEnable
                0x00000000080034d8                RST_CLK_ADCclkSelection
                0x00000000080034ec                RST_CLK_ADCclkPrescaler
                0x0000000008003500                RST_CLK_ADCclkEnable
                0x000000000800350c                RST_CLK_HSIclkPrescaler
                0x0000000008003520                RST_CLK_RTC_HSIclkEnable
                0x000000000800352c                RST_CLK_HSEclkPrescaler
                0x0000000008003540                RST_CLK_RTC_HSEclkEnable
                0x000000000800354c                RST_CLK_PCLKcmd
                0x0000000008003568                RST_CLK_GetClocksFreq
                0x00000000080036c8                RST_CLK_GetFlagStatus
                0x00000000080036f8                RST_CLK_HSEstatus
                0x000000000800372c                RST_CLK_LSEstatus
                0x0000000008003760                RST_CLK_HSIstatus
                0x0000000008003794                RST_CLK_WarmDeInit
                0x00000000080037d0                RST_CLK_DeInit
                0x00000000080037f8                RST_CLK_LSIstatus
                0x000000000800382c                RST_CLK_CPU_PLLstatus
                0x0000000008003860                RST_CLK_USB_PLLstatus
 .text          0x0000000008003894      0x4a4 obj/MDR32F9Qx_timer.o
                0x0000000008003894                TIMER_DeInit
                0x00000000080038d8                TIMER_CntInit
                0x000000000800390c                TIMER_CntStructInit
                0x0000000008003928                TIMER_Cmd
                0x000000000800393a                TIMER_SetCounter
                0x000000000800393e                TIMER_SetCntPrescaler
                0x0000000008003942                TIMER_SetCntAutoreload
                0x0000000008003946                TIMER_CntAutoreloadConfig
                0x0000000008003954                TIMER_GetCounter
                0x000000000800395a                TIMER_CntEventSourceConfig
                0x0000000008003966                TIMER_FilterSamplingConfig
                0x0000000008003972                TIMER_CounterModeConfig
                0x000000000800397e                TIMER_SetCounterDirection
                0x000000000800398a                TIMER_ETRInputConfig
                0x00000000080039a0                TIMER_ETRFilterConfig
                0x00000000080039ae                TIMER_ETRPrescalerConfig
                0x00000000080039ba                TIMER_ETRPolarityConfig
                0x00000000080039c6                TIMER_BRKPolarityConfig
                0x00000000080039d2                TIMER_GetCounterDirection
                0x00000000080039e0                TIMER_GetCntWriteComplete
                0x00000000080039f0                TIMER_ChnInit
                0x0000000008003a36                TIMER_ChnStructInit
                0x0000000008003a52                TIMER_SetChnCompare
                0x0000000008003a5a                TIMER_SetChnCompare1
                0x0000000008003a62                TIMER_ChnCompareConfig
                0x0000000008003a80                TIMER_ChnCompare1Config
                0x0000000008003a9e                TIMER_GetChnCapture
                0x0000000008003aa8                TIMER_GetChnCapture1
                0x0000000008003ab2                TIMER_ChnETR_Cmd
                0x0000000008003aca                TIMER_ChnETRResetConfig
                0x0000000008003adc                TIMER_ChnBRKResetConfig
                0x0000000008003aee                TIMER_ChnREFFormatConfig
                0x0000000008003b00                TIMER_ChnCapturePrescalerConfig
                0x0000000008003b14                TIMER_ChnEventSourceConfig
                0x0000000008003b26                TIMER_ChnFilterConfig
                0x0000000008003b38                TIMER_GetChnWriteComplete
                0x0000000008003b4c                TIMER_ChnCCR1_EventSourceConfig
                0x0000000008003b5e                TIMER_ChnCCR1_Cmd
                0x0000000008003b76                TIMER_ChnOutInit
                0x0000000008003bb8                TIMER_ChnOutStructInit
                0x0000000008003bce                TIMER_ChnOutConfig
                0x0000000008003bee                TIMER_ChnOutSourceConfig
                0x0000000008003c02                TIMER_ChnOutModeConfig
                0x0000000008003c14                TIMER_ChnOutPolarityConfig
                0x0000000008003c28                TIMER_ChnNOutConfig
                0x0000000008003c4a                TIMER_ChnNOutSourceConfig
                0x0000000008003c5e                TIMER_ChnNOutModeConfig
                0x0000000008003c72                TIMER_ChnNOutPolarityConfig
                0x0000000008003c86                TIMER_ChnOutDTGConfig
                0x0000000008003c96                TIMER_GetStatus
                0x0000000008003c9a                TIMER_GetFlagStatus
                0x0000000008003ca8                TIMER_ClearFlag
                0x0000000008003cb2                TIMER_DMACmd
                0x0000000008003cc2                TIMER_ITConfig
                0x0000000008003cd2                TIMER_GetITStatus
                0x0000000008003ce4                TIMER_BRGInit
 .text          0x0000000008003d38      0x1f8 obj/MDR32F9Qx_uart.o
                0x0000000008003d38                UART_DeInit
                0x0000000008003d5a                UART_Init
                0x0000000008003dec                UART_StructInit
                0x0000000008003e04                UART_Cmd
                0x0000000008003e1e                UART_ITConfig
                0x0000000008003e32                UART_GetITStatus
                0x0000000008003e42                UART_GetITStatusMasked
                0x0000000008003e50                UART_ClearITPendingBit
                0x0000000008003e58                UART_DMAConfig
                0x0000000008003e60                UART_DMACmd
                0x0000000008003e76                UART_SendData
                0x0000000008003e7c                UART_ReceiveData
                0x0000000008003e82                UART_BreakLine
                0x0000000008003e9c                UART_IrDAConfig
                0x0000000008003ecc                UART_IrDACmd
                0x0000000008003ee6                UART_GetFlagStatus
                0x0000000008003ef4                UART_BRGInit
 .text          0x0000000008003f30      0x104 obj/MDR32F9Qx_ebc.o
                0x0000000008003f30                EBC_DeInit
                0x0000000008003f40                EBC_Init
                0x0000000008003f80                EBC_StructInit
                0x0000000008003f98                EBC_CalcWaitStates
                0x0000000008003fe0                EBC_CalcNandCycles
                0x000000000800401c                EBC_GetBusyStatus
 *fill*         0x0000000008004034        0xc 
 .text          0x0000000008004040       0x68 obj/svc_handler.o
                0x0000000008004040                SVC_Handler
 *fill*         0x00000000080040a8        0x8 
 .text          0x00000000080040b0       0x14 obj/hard_fault_handler.o
                0x00000000080040b0                HardFault_Handler
 *fill*         0x00000000080040c4        0xc 
 .text          0x00000000080040d0       0x38 obj/mpu_fault_handler.o
                0x00000000080040d0                MemManage_Handler
 .text          0x0000000008004108        0x8 obj/svc_exec_privileged.o
                0x0000000008004108                SvcExecPrivileged
                0x000000000800410c                SvcInitScheduler
 .text          0x0000000008004110       0x20 obj/pendsv_handler.o
                0x0000000008004110                PendSV_Handler
 .text          0x0000000008004130        0x0 /usr/bin/../lib/gcc/arm-none-eabi/7.3.1/../../../../arm-none-eabi/lib/thumb/v7-m/libstdc++_nano.a(eh_call.o)
 .text._ZN10__cxxabiv1L24__is_gxx_exception_classEPc
                0x0000000008004130       0x3a /usr/bin/../lib/gcc/arm-none-eabi/7.3.1/../../../../arm-none-eabi/lib/thumb/v7-m/libstdc++_nano.a(eh_call.o)
 .text.__cxa_call_terminate
                0x000000000800416a       0x1e /usr/bin/../lib/gcc/arm-none-eabi/7.3.1/../../../../arm-none-eabi/lib/thumb/v7-m/libstdc++_nano.a(eh_call.o)
                0x000000000800416a                __cxa_call_terminate
 .text.__cxa_call_unexpected
                0x0000000008004188       0x28 /usr/bin/../lib/gcc/arm-none-eabi/7.3.1/../../../../arm-none-eabi/lib/thumb/v7-m/libstdc++_nano.a(eh_call.o)
                0x0000000008004188                __cxa_call_unexpected
 .text          0x00000000080041b0        0x0 /usr/bin/../lib/gcc/arm-none-eabi/7.3.1/../../../../arm-none-eabi/lib/thumb/v7-m/libstdc++_nano.a(eh_personality.o)
 .text._ZL12read_uleb128PKhPm
                0x00000000080041b0       0x22 /usr/bin/../lib/gcc/arm-none-eabi/7.3.1/../../../../arm-none-eabi/lib/thumb/v7-m/libstdc++_nano.a(eh_personality.o)
 .text._ZL12read_sleb128PKhPl
                0x00000000080041d2       0x30 /usr/bin/../lib/gcc/arm-none-eabi/7.3.1/../../../../arm-none-eabi/lib/thumb/v7-m/libstdc++_nano.a(eh_personality.o)
 .text._ZL28read_encoded_value_with_basehjPKhPj
                0x0000000008004202       0x88 /usr/bin/../lib/gcc/arm-none-eabi/7.3.1/../../../../arm-none-eabi/lib/thumb/v7-m/libstdc++_nano.a(eh_personality.o)
 .text._Unwind_GetGR
                0x000000000800428a       0x18 /usr/bin/../lib/gcc/arm-none-eabi/7.3.1/../../../../arm-none-eabi/lib/thumb/v7-m/libstdc++_nano.a(eh_personality.o)
 .text._ZL21base_of_encoded_valuehP15_Unwind_Context.part.3
                0x00000000080042a2       0x44 /usr/bin/../lib/gcc/arm-none-eabi/7.3.1/../../../../arm-none-eabi/lib/thumb/v7-m/libstdc++_nano.a(eh_personality.o)
 .text._ZL18read_encoded_valueP15_Unwind_ContexthPKhPj
                0x00000000080042e6       0x28 /usr/bin/../lib/gcc/arm-none-eabi/7.3.1/../../../../arm-none-eabi/lib/thumb/v7-m/libstdc++_nano.a(eh_personality.o)
 .text._ZL17parse_lsda_headerP15_Unwind_ContextPKhP16lsda_header_info
                0x000000000800430e       0x5a /usr/bin/../lib/gcc/arm-none-eabi/7.3.1/../../../../arm-none-eabi/lib/thumb/v7-m/libstdc++_nano.a(eh_personality.o)
 .text.__gxx_personality_v0
                0x0000000008004368      0x380 /usr/bin/../lib/gcc/arm-none-eabi/7.3.1/../../../../arm-none-eabi/lib/thumb/v7-m/libstdc++_nano.a(eh_personality.o)
                0x0000000008004368                __gxx_personality_v0
 .text          0x00000000080046e8        0x0 /usr/bin/../lib/gcc/arm-none-eabi/7.3.1/../../../../arm-none-eabi/lib/thumb/v7-m/libstdc++_nano.a(eh_arm.o)
 .text.__cxa_end_cleanup
                0x00000000080046e8        0xc /usr/bin/../lib/gcc/arm-none-eabi/7.3.1/../../../../arm-none-eabi/lib/thumb/v7-m/libstdc++_nano.a(eh_arm.o)
                0x00000000080046e8                __cxa_end_cleanup
 .text._ZN10__cxxabiv1L24__is_gxx_exception_classEPc
                0x00000000080046f4       0x3a /usr/bin/../lib/gcc/arm-none-eabi/7.3.1/../../../../arm-none-eabi/lib/thumb/v7-m/libstdc++_nano.a(eh_arm.o)
 *fill*         0x000000000800472e        0x2 
 .text.__cxa_type_match
                0x0000000008004730       0xbc /usr/bin/../lib/gcc/arm-none-eabi/7.3.1/../../../../arm-none-eabi/lib/thumb/v7-m/libstdc++_nano.a(eh_arm.o)
                0x0000000008004730                __cxa_type_match
 .text.__cxa_begin_cleanup
                0x00000000080047ec       0x3a /usr/bin/../lib/gcc/arm-none-eabi/7.3.1/../../../../arm-none-eabi/lib/thumb/v7-m/libstdc++_nano.a(eh_arm.o)
                0x00000000080047ec                __cxa_begin_cleanup
 .text.__gnu_end_cleanup
                0x0000000008004826       0x32 /usr/bin/../lib/gcc/arm-none-eabi/7.3.1/../../../../arm-none-eabi/lib/thumb/v7-m/libstdc++_nano.a(eh_arm.o)
                0x0000000008004826                __gnu_end_cleanup
 .text          0x0000000008004858        0x0 /usr/bin/../lib/gcc/arm-none-eabi/7.3.1/../../../../arm-none-eabi/lib/thumb/v7-m/libstdc++_nano.a(eh_catch.o)
 .text._ZN10__cxxabiv1L24__is_gxx_exception_classEPc
                0x0000000008004858       0x3a /usr/bin/../lib/gcc/arm-none-eabi/7.3.1/../../../../arm-none-eabi/lib/thumb/v7-m/libstdc++_nano.a(eh_catch.o)
 .text.__cxa_get_exception_ptr
                0x0000000008004892        0x4 /usr/bin/../lib/gcc/arm-none-eabi/7.3.1/../../../../arm-none-eabi/lib/thumb/v7-m/libstdc++_nano.a(eh_catch.o)
                0x0000000008004892                __cxa_get_exception_ptr
 .text.__cxa_begin_catch
                0x0000000008004896       0x54 /usr/bin/../lib/gcc/arm-none-eabi/7.3.1/../../../../arm-none-eabi/lib/thumb/v7-m/libstdc++_nano.a(eh_catch.o)
                0x0000000008004896                __cxa_begin_catch
 .text.__cxa_end_catch
                0x00000000080048ea       0x48 /usr/bin/../lib/gcc/arm-none-eabi/7.3.1/../../../../arm-none-eabi/lib/thumb/v7-m/libstdc++_nano.a(eh_catch.o)
                0x00000000080048ea                __cxa_end_catch
 .text._ZSt18uncaught_exceptionv
                0x0000000008004932        0x4 /usr/bin/../lib/gcc/arm-none-eabi/7.3.1/../../../../arm-none-eabi/lib/thumb/v7-m/libstdc++_nano.a(eh_catch.o)
                0x0000000008004932                std::uncaught_exception()
 .text._ZSt19uncaught_exceptionsv
                0x0000000008004936        0x4 /usr/bin/../lib/gcc/arm-none-eabi/7.3.1/../../../../arm-none-eabi/lib/thumb/v7-m/libstdc++_nano.a(eh_catch.o)
                0x0000000008004936                std::uncaught_exceptions()
 .text          0x000000000800493a        0x0 /usr/bin/../lib/gcc/arm-none-eabi/7.3.1/../../../../arm-none-eabi/lib/thumb/v7-m/libstdc++_nano.a(guard.o)
 .text.__cxa_guard_acquire
                0x000000000800493a       0x18 /usr/bin/../lib/gcc/arm-none-eabi/7.3.1/../../../../arm-none-eabi/lib/thumb/v7-m/libstdc++_nano.a(guard.o)
                0x000000000800493a                __cxa_guard_acquire
 .text.__cxa_guard_abort
                0x0000000008004952        0x6 /usr/bin/../lib/gcc/arm-none-eabi/7.3.1/../../../../arm-none-eabi/lib/thumb/v7-m/libstdc++_nano.a(guard.o)
                0x0000000008004952                __cxa_guard_abort
 .text.__cxa_guard_release
                0x0000000008004958        0x6 /usr/bin/../lib/gcc/arm-none-eabi/7.3.1/../../../../arm-none-eabi/lib/thumb/v7-m/libstdc++_nano.a(guard.o)
                0x0000000008004958                __cxa_guard_release
 .text          0x000000000800495e        0x0 /usr/bin/../lib/gcc/arm-none-eabi/7.3.1/../../../../arm-none-eabi/lib/thumb/v7-m/libstdc++_nano.a(atexit_arm.o)
 .text.__aeabi_atexit
                0x000000000800495e        0xa /usr/bin/../lib/gcc/arm-none-eabi/7.3.1/../../../../arm-none-eabi/lib/thumb/v7-m/libstdc++_nano.a(atexit_arm.o)
                0x000000000800495e                __aeabi_atexit
 .text          0x0000000008004968        0x0 /usr/bin/../lib/gcc/arm-none-eabi/7.3.1/../../../../arm-none-eabi/lib/thumb/v7-m/libstdc++_nano.a(class_type_info.o)
 .text._ZNK10__cxxabiv117__class_type_info11__do_upcastEPKS0_PPv
                0x0000000008004968       0x34 /usr/bin/../lib/gcc/arm-none-eabi/7.3.1/../../../../arm-none-eabi/lib/thumb/v7-m/libstdc++_nano.a(class_type_info.o)
                0x0000000008004968                __cxxabiv1::__class_type_info::__do_upcast(__cxxabiv1::__class_type_info const*, void**) const
 .text._ZNK10__cxxabiv117__class_type_info20__do_find_public_srcEiPKvPKS0_S2_
                0x000000000800499c        0xc /usr/bin/../lib/gcc/arm-none-eabi/7.3.1/../../../../arm-none-eabi/lib/thumb/v7-m/libstdc++_nano.a(class_type_info.o)
                0x000000000800499c                __cxxabiv1::__class_type_info::__do_find_public_src(int, void const*, __cxxabiv1::__class_type_info const*, void const*) const
 .text._ZN10__cxxabiv117__class_type_infoD2Ev
                0x00000000080049a8       0x14 /usr/bin/../lib/gcc/arm-none-eabi/7.3.1/../../../../arm-none-eabi/lib/thumb/v7-m/libstdc++_nano.a(class_type_info.o)
                0x00000000080049a8                __cxxabiv1::__class_type_info::~__class_type_info()
                0x00000000080049a8                __cxxabiv1::__class_type_info::~__class_type_info()
 .text._ZN10__cxxabiv117__class_type_infoD0Ev
                0x00000000080049bc       0x14 /usr/bin/../lib/gcc/arm-none-eabi/7.3.1/../../../../arm-none-eabi/lib/thumb/v7-m/libstdc++_nano.a(class_type_info.o)
                0x00000000080049bc                __cxxabiv1::__class_type_info::~__class_type_info()
 .text._ZNK10__cxxabiv117__class_type_info12__do_dyncastEiNS0_10__sub_kindEPKS0_PKvS3_S5_RNS0_16__dyncast_resultE
                0x00000000080049d0       0x3a /usr/bin/../lib/gcc/arm-none-eabi/7.3.1/../../../../arm-none-eabi/lib/thumb/v7-m/libstdc++_nano.a(class_type_info.o)
                0x00000000080049d0                __cxxabiv1::__class_type_info::__do_dyncast(int, __cxxabiv1::__class_type_info::__sub_kind, __cxxabiv1::__class_type_info const*, void const*, __cxxabiv1::__class_type_info const*, void const*, __cxxabiv1::__class_type_info::__dyncast_result&) const
 .text._ZNK10__cxxabiv117__class_type_info11__do_upcastEPKS0_PKvRNS0_15__upcast_resultE
                0x0000000008004a0a       0x18 /usr/bin/../lib/gcc/arm-none-eabi/7.3.1/../../../../arm-none-eabi/lib/thumb/v7-m/libstdc++_nano.a(class_type_info.o)
                0x0000000008004a0a                __cxxabiv1::__class_type_info::__do_upcast(__cxxabiv1::__class_type_info const*, void const*, __cxxabiv1::__class_type_info::__upcast_result&) const
 .text._ZNK10__cxxabiv117__class_type_info10__do_catchEPKSt9type_infoPPvj
                0x0000000008004a22       0x2a /usr/bin/../lib/gcc/arm-none-eabi/7.3.1/../../../../arm-none-eabi/lib/thumb/v7-m/libstdc++_nano.a(class_type_info.o)
                0x0000000008004a22                __cxxabiv1::__class_type_info::__do_catch(std::type_info const*, void**, unsigned int) const
 .text          0x0000000008004a4c        0x0 /usr/bin/../lib/gcc/arm-none-eabi/7.3.1/../../../../arm-none-eabi/lib/thumb/v7-m/libstdc++_nano.a(eh_terminate.o)
 .text._ZN10__cxxabiv111__terminateEPFvvE
                0x0000000008004a4c        0x8 /usr/bin/../lib/gcc/arm-none-eabi/7.3.1/../../../../arm-none-eabi/lib/thumb/v7-m/libstdc++_nano.a(eh_terminate.o)
                0x0000000008004a4c                __cxxabiv1::__terminate(void (*)())
 .text._ZSt13set_terminatePFvvE
                0x0000000008004a54       0x20 /usr/bin/../lib/gcc/arm-none-eabi/7.3.1/../../../../arm-none-eabi/lib/thumb/v7-m/libstdc++_nano.a(eh_terminate.o)
                0x0000000008004a54                std::set_terminate(void (*)())
 .text._ZSt13get_terminatev
                0x0000000008004a74       0x10 /usr/bin/../lib/gcc/arm-none-eabi/7.3.1/../../../../arm-none-eabi/lib/thumb/v7-m/libstdc++_nano.a(eh_terminate.o)
                0x0000000008004a74                std::get_terminate()
 .text._ZSt9terminatev
                0x0000000008004a84        0xa /usr/bin/../lib/gcc/arm-none-eabi/7.3.1/../../../../arm-none-eabi/lib/thumb/v7-m/libstdc++_nano.a(eh_terminate.o)
                0x0000000008004a84                std::terminate()
 .text._ZN10__cxxabiv112__unexpectedEPFvvE
                0x0000000008004a8e        0x8 /usr/bin/../lib/gcc/arm-none-eabi/7.3.1/../../../../arm-none-eabi/lib/thumb/v7-m/libstdc++_nano.a(eh_terminate.o)
                0x0000000008004a8e                __cxxabiv1::__unexpected(void (*)())
 *fill*         0x0000000008004a96        0x2 
 .text._ZSt14set_unexpectedPFvvE
                0x0000000008004a98       0x20 /usr/bin/../lib/gcc/arm-none-eabi/7.3.1/../../../../arm-none-eabi/lib/thumb/v7-m/libstdc++_nano.a(eh_terminate.o)
                0x0000000008004a98                std::set_unexpected(void (*)())
 .text._ZSt14get_unexpectedv
                0x0000000008004ab8       0x10 /usr/bin/../lib/gcc/arm-none-eabi/7.3.1/../../../../arm-none-eabi/lib/thumb/v7-m/libstdc++_nano.a(eh_terminate.o)
                0x0000000008004ab8                std::get_unexpected()
 .text._ZSt10unexpectedv
                0x0000000008004ac8        0xa /usr/bin/../lib/gcc/arm-none-eabi/7.3.1/../../../../arm-none-eabi/lib/thumb/v7-m/libstdc++_nano.a(eh_terminate.o)
                0x0000000008004ac8                std::unexpected()
 .text          0x0000000008004ad2        0x0 /usr/bin/../lib/gcc/arm-none-eabi/7.3.1/../../../../arm-none-eabi/lib/thumb/v7-m/libstdc++_nano.a(eh_unex_handler.o)
 .text          0x0000000008004ad2        0x0 /usr/bin/../lib/gcc/arm-none-eabi/7.3.1/../../../../arm-none-eabi/lib/thumb/v7-m/libstdc++_nano.a(eh_term_handler.o)
 .text          0x0000000008004ad2        0x0 /usr/bin/../lib/gcc/arm-none-eabi/7.3.1/../../../../arm-none-eabi/lib/thumb/v7-m/libstdc++_nano.a(eh_globals.o)
 *fill*         0x0000000008004ad2        0x2 
 .text.__cxa_get_globals_fast
                0x0000000008004ad4        0x8 /usr/bin/../lib/gcc/arm-none-eabi/7.3.1/../../../../arm-none-eabi/lib/thumb/v7-m/libstdc++_nano.a(eh_globals.o)
                0x0000000008004ad4                __cxa_get_globals_fast
 .text.__cxa_get_globals
                0x0000000008004adc        0x8 /usr/bin/../lib/gcc/arm-none-eabi/7.3.1/../../../../arm-none-eabi/lib/thumb/v7-m/libstdc++_nano.a(eh_globals.o)
                0x0000000008004adc                __cxa_get_globals
 .text          0x0000000008004ae4        0x0 /usr/bin/../lib/gcc/arm-none-eabi/7.3.1/../../../../arm-none-eabi/lib/thumb/v7-m/libstdc++_nano.a(eh_aux_runtime.o)
 .text.__cxa_bad_cast
                0x0000000008004ae4        0x6 /usr/bin/../lib/gcc/arm-none-eabi/7.3.1/../../../../arm-none-eabi/lib/thumb/v7-m/libstdc++_nano.a(eh_aux_runtime.o)
                0x0000000008004ae4                __cxa_bad_cast
 .text.__cxa_bad_typeid
                0x0000000008004aea        0x6 /usr/bin/../lib/gcc/arm-none-eabi/7.3.1/../../../../arm-none-eabi/lib/thumb/v7-m/libstdc++_nano.a(eh_aux_runtime.o)
                0x0000000008004aea                __cxa_bad_typeid
 .text.__cxa_throw_bad_array_new_length
                0x0000000008004af0        0x6 /usr/bin/../lib/gcc/arm-none-eabi/7.3.1/../../../../arm-none-eabi/lib/thumb/v7-m/libstdc++_nano.a(eh_aux_runtime.o)
                0x0000000008004af0                __cxa_throw_bad_array_new_length
 .text          0x0000000008004af6        0x0 /usr/bin/../lib/gcc/arm-none-eabi/7.3.1/../../../../arm-none-eabi/lib/thumb/v7-m/libstdc++_nano.a(si_class_type_info.o)
 *fill*         0x0000000008004af6        0x2 
 .text._ZN10__cxxabiv120__si_class_type_infoD2Ev
                0x0000000008004af8       0x14 /usr/bin/../lib/gcc/arm-none-eabi/7.3.1/../../../../arm-none-eabi/lib/thumb/v7-m/libstdc++_nano.a(si_class_type_info.o)
                0x0000000008004af8                __cxxabiv1::__si_class_type_info::~__si_class_type_info()
                0x0000000008004af8                __cxxabiv1::__si_class_type_info::~__si_class_type_info()
 .text._ZN10__cxxabiv120__si_class_type_infoD0Ev
                0x0000000008004b0c       0x14 /usr/bin/../lib/gcc/arm-none-eabi/7.3.1/../../../../arm-none-eabi/lib/thumb/v7-m/libstdc++_nano.a(si_class_type_info.o)
                0x0000000008004b0c                __cxxabiv1::__si_class_type_info::~__si_class_type_info()
 .text._ZNK10__cxxabiv120__si_class_type_info20__do_find_public_srcEiPKvPKNS_17__class_type_infoES2_
                0x0000000008004b20       0x38 /usr/bin/../lib/gcc/arm-none-eabi/7.3.1/../../../../arm-none-eabi/lib/thumb/v7-m/libstdc++_nano.a(si_class_type_info.o)
                0x0000000008004b20                __cxxabiv1::__si_class_type_info::__do_find_public_src(int, void const*, __cxxabiv1::__class_type_info const*, void const*) const
 .text._ZNK10__cxxabiv120__si_class_type_info12__do_dyncastEiNS_17__class_type_info10__sub_kindEPKS1_PKvS4_S6_RNS1_16__dyncast_resultE
                0x0000000008004b58       0x74 /usr/bin/../lib/gcc/arm-none-eabi/7.3.1/../../../../arm-none-eabi/lib/thumb/v7-m/libstdc++_nano.a(si_class_type_info.o)
                0x0000000008004b58                __cxxabiv1::__si_class_type_info::__do_dyncast(int, __cxxabiv1::__class_type_info::__sub_kind, __cxxabiv1::__class_type_info const*, void const*, __cxxabiv1::__class_type_info const*, void const*, __cxxabiv1::__class_type_info::__dyncast_result&) const
 .text._ZNK10__cxxabiv120__si_class_type_info11__do_upcastEPKNS_17__class_type_infoEPKvRNS1_15__upcast_resultE
                0x0000000008004bcc       0x2a /usr/bin/../lib/gcc/arm-none-eabi/7.3.1/../../../../arm-none-eabi/lib/thumb/v7-m/libstdc++_nano.a(si_class_type_info.o)
                0x0000000008004bcc                __cxxabiv1::__si_class_type_info::__do_upcast(__cxxabiv1::__class_type_info const*, void const*, __cxxabiv1::__class_type_info::__upcast_result&) const
 .text          0x0000000008004bf6        0x0 /usr/bin/../lib/gcc/arm-none-eabi/7.3.1/../../../../arm-none-eabi/lib/thumb/v7-m/libstdc++_nano.a(del_ops.o)
 .text._ZdlPvj  0x0000000008004bf6        0x4 /usr/bin/../lib/gcc/arm-none-eabi/7.3.1/../../../../arm-none-eabi/lib/thumb/v7-m/libstdc++_nano.a(del_ops.o)
                0x0000000008004bf6                operator delete(void*, unsigned int)
 .text          0x0000000008004bfa        0x0 /usr/bin/../lib/gcc/arm-none-eabi/7.3.1/../../../../arm-none-eabi/lib/thumb/v7-m/libstdc++_nano.a(eh_exception.o)
 .text._ZNSt9exceptionD2Ev
                0x0000000008004bfa        0x2 /usr/bin/../lib/gcc/arm-none-eabi/7.3.1/../../../../arm-none-eabi/lib/thumb/v7-m/libstdc++_nano.a(eh_exception.o)
                0x0000000008004bfa                std::exception::~exception()
                0x0000000008004bfa                std::exception::~exception()
 .text._ZNSt13bad_exceptionD2Ev
                0x0000000008004bfc        0x2 /usr/bin/../lib/gcc/arm-none-eabi/7.3.1/../../../../arm-none-eabi/lib/thumb/v7-m/libstdc++_nano.a(eh_exception.o)
                0x0000000008004bfc                std::bad_exception::~bad_exception()
                0x0000000008004bfc                std::bad_exception::~bad_exception()
 *fill*         0x0000000008004bfe        0x2 
 .text._ZNKSt9exception4whatEv
                0x0000000008004c00        0x8 /usr/bin/../lib/gcc/arm-none-eabi/7.3.1/../../../../arm-none-eabi/lib/thumb/v7-m/libstdc++_nano.a(eh_exception.o)
                0x0000000008004c00                transaction clone for std::exception::what() const
                0x0000000008004c00                std::exception::what() const
 .text._ZNKSt13bad_exception4whatEv
                0x0000000008004c08        0x8 /usr/bin/../lib/gcc/arm-none-eabi/7.3.1/../../../../arm-none-eabi/lib/thumb/v7-m/libstdc++_nano.a(eh_exception.o)
                0x0000000008004c08                transaction clone for std::bad_exception::what() const
                0x0000000008004c08                std::bad_exception::what() const
 .text._ZNSt9exceptionD0Ev
                0x0000000008004c10        0xe /usr/bin/../lib/gcc/arm-none-eabi/7.3.1/../../../../arm-none-eabi/lib/thumb/v7-m/libstdc++_nano.a(eh_exception.o)
                0x0000000008004c10                std::exception::~exception()
 .text._ZNSt13bad_exceptionD0Ev
                0x0000000008004c1e        0xe /usr/bin/../lib/gcc/arm-none-eabi/7.3.1/../../../../arm-none-eabi/lib/thumb/v7-m/libstdc++_nano.a(eh_exception.o)
                0x0000000008004c1e                std::bad_exception::~bad_exception()
 .text._ZN10__cxxabiv115__forced_unwindD2Ev
                0x0000000008004c2c        0x2 /usr/bin/../lib/gcc/arm-none-eabi/7.3.1/../../../../arm-none-eabi/lib/thumb/v7-m/libstdc++_nano.a(eh_exception.o)
                0x0000000008004c2c                __cxxabiv1::__forced_unwind::~__forced_unwind()
                0x0000000008004c2c                __cxxabiv1::__forced_unwind::~__forced_unwind()
 .text._ZN10__cxxabiv115__forced_unwindD0Ev
                0x0000000008004c2e        0xe /usr/bin/../lib/gcc/arm-none-eabi/7.3.1/../../../../arm-none-eabi/lib/thumb/v7-m/libstdc++_nano.a(eh_exception.o)
                0x0000000008004c2e                __cxxabiv1::__forced_unwind::~__forced_unwind()
 .text._ZN10__cxxabiv119__foreign_exceptionD2Ev
                0x0000000008004c3c        0x2 /usr/bin/../lib/gcc/arm-none-eabi/7.3.1/../../../../arm-none-eabi/lib/thumb/v7-m/libstdc++_nano.a(eh_exception.o)
                0x0000000008004c3c                __cxxabiv1::__foreign_exception::~__foreign_exception()
                0x0000000008004c3c                __cxxabiv1::__foreign_exception::~__foreign_exception()
 .text._ZN10__cxxabiv119__foreign_exceptionD0Ev
                0x0000000008004c3e        0xe /usr/bin/../lib/gcc/arm-none-eabi/7.3.1/../../../../arm-none-eabi/lib/thumb/v7-m/libstdc++_nano.a(eh_exception.o)
                0x0000000008004c3e                __cxxabiv1::__foreign_exception::~__foreign_exception()
 .text._ZGTtNKSt9exceptionD1Ev
                0x0000000008004c4c        0x2 /usr/bin/../lib/gcc/arm-none-eabi/7.3.1/../../../../arm-none-eabi/lib/thumb/v7-m/libstdc++_nano.a(eh_exception.o)
                0x0000000008004c4c                transaction clone for std::exception::~exception() const
 .text._ZGTtNKSt13bad_exceptionD1Ev
                0x0000000008004c4e        0x2 /usr/bin/../lib/gcc/arm-none-eabi/7.3.1/../../../../arm-none-eabi/lib/thumb/v7-m/libstdc++_nano.a(eh_exception.o)
                0x0000000008004c4e                transaction clone for std::bad_exception::~bad_exception() const
 .text          0x0000000008004c50        0x0 /usr/bin/../lib/gcc/arm-none-eabi/7.3.1/../../../../arm-none-eabi/lib/thumb/v7-m/libstdc++_nano.a(tinfo.o)
 .text._ZNSt9type_infoD2Ev
                0x0000000008004c50        0x2 /usr/bin/../lib/gcc/arm-none-eabi/7.3.1/../../../../arm-none-eabi/lib/thumb/v7-m/libstdc++_nano.a(tinfo.o)
                0x0000000008004c50                std::type_info::~type_info()
                0x0000000008004c50                std::type_info::~type_info()
 .text._ZNKSt9type_info14__is_pointer_pEv
                0x0000000008004c52        0x4 /usr/bin/../lib/gcc/arm-none-eabi/7.3.1/../../../../arm-none-eabi/lib/thumb/v7-m/libstdc++_nano.a(tinfo.o)
                0x0000000008004c52                std::type_info::__is_function_p() const
                0x0000000008004c52                std::type_info::__is_pointer_p() const
 .text._ZNKSt9type_info11__do_upcastEPKN10__cxxabiv117__class_type_infoEPPv
                0x0000000008004c56        0x4 /usr/bin/../lib/gcc/arm-none-eabi/7.3.1/../../../../arm-none-eabi/lib/thumb/v7-m/libstdc++_nano.a(tinfo.o)
                0x0000000008004c56                std::type_info::__do_upcast(__cxxabiv1::__class_type_info const*, void**) const
 .text._ZNSt9type_infoD0Ev
                0x0000000008004c5a        0xe /usr/bin/../lib/gcc/arm-none-eabi/7.3.1/../../../../arm-none-eabi/lib/thumb/v7-m/libstdc++_nano.a(tinfo.o)
                0x0000000008004c5a                std::type_info::~type_info()
 .text._ZNKSt9type_infoeqERKS_
                0x0000000008004c68       0x2c /usr/bin/../lib/gcc/arm-none-eabi/7.3.1/../../../../arm-none-eabi/lib/thumb/v7-m/libstdc++_nano.a(tinfo.o)
                0x0000000008004c68                std::type_info::operator==(std::type_info const&) const
 .text._ZNKSt9type_info10__do_catchEPKS_PPvj
                0x0000000008004c94        0x4 /usr/bin/../lib/gcc/arm-none-eabi/7.3.1/../../../../arm-none-eabi/lib/thumb/v7-m/libstdc++_nano.a(tinfo.o)
                0x0000000008004c94                std::type_info::__do_catch(std::type_info const*, void**, unsigned int) const
 .text          0x0000000008004c98      0x378 /usr/bin/../lib/gcc/arm-none-eabi/7.3.1/thumb/v7-m/libgcc.a(_arm_addsubdf3.o)
                0x0000000008004c98                __aeabi_drsub
                0x0000000008004ca0                __aeabi_dsub
                0x0000000008004ca0                __subdf3
                0x0000000008004ca4                __adddf3
                0x0000000008004ca4                __aeabi_dadd
                0x0000000008004f1c                __aeabi_ui2d
                0x0000000008004f1c                __floatunsidf
                0x0000000008004f3c                __floatsidf
                0x0000000008004f3c                __aeabi_i2d
                0x0000000008004f60                __extendsfdf2
                0x0000000008004f60                __aeabi_f2d
                0x0000000008004fa4                __aeabi_ul2d
                0x0000000008004fa4                __floatundidf
                0x0000000008004fb4                __floatdidf
                0x0000000008004fb4                __aeabi_l2d
 .text          0x0000000008005010      0x424 /usr/bin/../lib/gcc/arm-none-eabi/7.3.1/thumb/v7-m/libgcc.a(_arm_muldivdf3.o)
                0x0000000008005010                __aeabi_dmul
                0x0000000008005010                __muldf3
                0x0000000008005264                __aeabi_ddiv
                0x0000000008005264                __divdf3
 .text          0x0000000008005434       0x50 /usr/bin/../lib/gcc/arm-none-eabi/7.3.1/thumb/v7-m/libgcc.a(_arm_fixdfsi.o)
                0x0000000008005434                __fixdfsi
                0x0000000008005434                __aeabi_d2iz
 .text          0x0000000008005484      0xa00 /usr/bin/../lib/gcc/arm-none-eabi/7.3.1/thumb/v7-m/libgcc.a(unwind-arm.o)
                0x0000000008005740                _Unwind_GetCFA
                0x0000000008005744                __gnu_Unwind_RaiseException
                0x00000000080057a4                __gnu_Unwind_ForcedUnwind
                0x00000000080057b8                __gnu_Unwind_Resume
                0x00000000080057fc                __gnu_Unwind_Resume_or_Rethrow
                0x0000000008005810                _Unwind_Complete
                0x0000000008005814                _Unwind_DeleteException
                0x0000000008005820                _Unwind_VRS_Get
                0x0000000008005864                _Unwind_VRS_Set
                0x00000000080058ac                __gnu_Unwind_Backtrace
                0x0000000008005bf4                __aeabi_unwind_cpp_pr0
                0x0000000008005bf8                __aeabi_unwind_cpp_pr1
                0x0000000008005bfc                __aeabi_unwind_cpp_pr2
                0x0000000008005c00                _Unwind_VRS_Pop
 .text          0x0000000008005e84      0x1ac /usr/bin/../lib/gcc/arm-none-eabi/7.3.1/thumb/v7-m/libgcc.a(libunwind.o)
                0x0000000008005e84                __restore_core_regs
                0x0000000008005e84                restore_core_regs
                0x0000000008005e9c                __gnu_Unwind_Restore_VFP
                0x0000000008005ea4                __gnu_Unwind_Save_VFP
                0x0000000008005eac                __gnu_Unwind_Restore_VFP_D
                0x0000000008005eb4                __gnu_Unwind_Save_VFP_D
                0x0000000008005ebc                __gnu_Unwind_Restore_VFP_D_16_to_31
                0x0000000008005ec4                __gnu_Unwind_Save_VFP_D_16_to_31
                0x0000000008005ecc                __gnu_Unwind_Restore_WMMXD
                0x0000000008005f10                __gnu_Unwind_Save_WMMXD
                0x0000000008005f54                __gnu_Unwind_Restore_WMMXC
                0x0000000008005f68                __gnu_Unwind_Save_WMMXC
                0x0000000008005f7c                ___Unwind_RaiseException
                0x0000000008005f7c                _Unwind_RaiseException
                0x0000000008005fa0                ___Unwind_Resume
                0x0000000008005fa0                _Unwind_Resume
                0x0000000008005fc4                _Unwind_Resume_or_Rethrow
                0x0000000008005fc4                ___Unwind_Resume_or_Rethrow
                0x0000000008005fe8                ___Unwind_ForcedUnwind
                0x0000000008005fe8                _Unwind_ForcedUnwind
                0x000000000800600c                _Unwind_Backtrace
                0x000000000800600c                ___Unwind_Backtrace
 .text          0x0000000008006030      0x378 /usr/bin/../lib/gcc/arm-none-eabi/7.3.1/thumb/v7-m/libgcc.a(pr-support.o)
                0x0000000008006088                __gnu_unwind_execute
                0x000000000800634c                __gnu_unwind_frame
                0x0000000008006378                _Unwind_GetRegionStart
                0x0000000008006384                _Unwind_GetLanguageSpecificData
                0x0000000008006398                _Unwind_GetDataRelBase
                0x00000000080063a0                _Unwind_GetTextRelBase
 .text          0x00000000080063a8        0x0 /usr/bin/../lib/gcc/arm-none-eabi/7.3.1/../../../../arm-none-eabi/lib/thumb/v7-m/libg_nano.a(lib_a-cxa_atexit.o)
 .text.__cxa_atexit
                0x00000000080063a8       0x1c /usr/bin/../lib/gcc/arm-none-eabi/7.3.1/../../../../arm-none-eabi/lib/thumb/v7-m/libg_nano.a(lib_a-cxa_atexit.o)
                0x00000000080063a8                __cxa_atexit
 .text          0x00000000080063c4        0x0 /usr/bin/../lib/gcc/arm-none-eabi/7.3.1/../../../../arm-none-eabi/lib/thumb/v7-m/libg_nano.a(lib_a-errno.o)
 .text.__errno  0x00000000080063c4        0xc /usr/bin/../lib/gcc/arm-none-eabi/7.3.1/../../../../arm-none-eabi/lib/thumb/v7-m/libg_nano.a(lib_a-errno.o)
                0x00000000080063c4                __errno
 .text          0x00000000080063d0        0x0 /usr/bin/../lib/gcc/arm-none-eabi/7.3.1/../../../../arm-none-eabi/lib/thumb/v7-m/libg_nano.a(lib_a-impure.o)
 .text          0x00000000080063d0        0x0 /usr/bin/../lib/gcc/arm-none-eabi/7.3.1/../../../../arm-none-eabi/lib/thumb/v7-m/libg_nano.a(lib_a-malloc.o)
 .text.malloc   0x00000000080063d0       0x10 /usr/bin/../lib/gcc/arm-none-eabi/7.3.1/../../../../arm-none-eabi/lib/thumb/v7-m/libg_nano.a(lib_a-malloc.o)
                0x00000000080063d0                malloc
 .text.free     0x00000000080063e0       0x10 /usr/bin/../lib/gcc/arm-none-eabi/7.3.1/../../../../arm-none-eabi/lib/thumb/v7-m/libg_nano.a(lib_a-malloc.o)
                0x00000000080063e0                free
 .text          0x00000000080063f0        0x0 /usr/bin/../lib/gcc/arm-none-eabi/7.3.1/../../../../arm-none-eabi/lib/thumb/v7-m/libg_nano.a(lib_a-memcmp.o)
 .text.memcmp   0x00000000080063f0       0x1e /usr/bin/../lib/gcc/arm-none-eabi/7.3.1/../../../../arm-none-eabi/lib/thumb/v7-m/libg_nano.a(lib_a-memcmp.o)
                0x00000000080063f0                memcmp
 .text          0x000000000800640e        0x0 /usr/bin/../lib/gcc/arm-none-eabi/7.3.1/../../../../arm-none-eabi/lib/thumb/v7-m/libg_nano.a(lib_a-memcpy-stub.o)
 .text.memcpy   0x000000000800640e       0x16 /usr/bin/../lib/gcc/arm-none-eabi/7.3.1/../../../../arm-none-eabi/lib/thumb/v7-m/libg_nano.a(lib_a-memcpy-stub.o)
                0x000000000800640e                memcpy
 .text          0x0000000008006424        0x0 /usr/bin/../lib/gcc/arm-none-eabi/7.3.1/../../../../arm-none-eabi/lib/thumb/v7-m/libg_nano.a(lib_a-nano-freer.o)
 .text._free_r  0x0000000008006424       0x98 /usr/bin/../lib/gcc/arm-none-eabi/7.3.1/../../../../arm-none-eabi/lib/thumb/v7-m/libg_nano.a(lib_a-nano-freer.o)
                0x0000000008006424                _free_r
 .text          0x00000000080064bc        0x0 /usr/bin/../lib/gcc/arm-none-eabi/7.3.1/../../../../arm-none-eabi/lib/thumb/v7-m/libg_nano.a(lib_a-nano-mallocr.o)
 .text._malloc_r
                0x00000000080064bc       0xb4 /usr/bin/../lib/gcc/arm-none-eabi/7.3.1/../../../../arm-none-eabi/lib/thumb/v7-m/libg_nano.a(lib_a-nano-mallocr.o)
                0x00000000080064bc                _malloc_r
 .text          0x0000000008006570        0x0 /usr/bin/../lib/gcc/arm-none-eabi/7.3.1/../../../../arm-none-eabi/lib/thumb/v7-m/libg_nano.a(lib_a-on_exit_args.o)
 .text          0x0000000008006570        0x0 /usr/bin/../lib/gcc/arm-none-eabi/7.3.1/../../../../arm-none-eabi/lib/thumb/v7-m/libg_nano.a(lib_a-rand.o)
 .text.srand    0x0000000008006570       0x48 /usr/bin/../lib/gcc/arm-none-eabi/7.3.1/../../../../arm-none-eabi/lib/thumb/v7-m/libg_nano.a(lib_a-rand.o)
                0x0000000008006570                srand
 .text.rand     0x00000000080065b8       0x68 /usr/bin/../lib/gcc/arm-none-eabi/7.3.1/../../../../arm-none-eabi/lib/thumb/v7-m/libg_nano.a(lib_a-rand.o)
                0x00000000080065b8                rand
 .text          0x0000000008006620        0x0 /usr/bin/../lib/gcc/arm-none-eabi/7.3.1/../../../../arm-none-eabi/lib/thumb/v7-m/libg_nano.a(lib_a-sbrkr.o)
 .text._sbrk_r  0x0000000008006620       0x20 /usr/bin/../lib/gcc/arm-none-eabi/7.3.1/../../../../arm-none-eabi/lib/thumb/v7-m/libg_nano.a(lib_a-sbrkr.o)
                0x0000000008006620                _sbrk_r
 .text          0x0000000008006640       0x14 /usr/bin/../lib/gcc/arm-none-eabi/7.3.1/../../../../arm-none-eabi/lib/thumb/v7-m/libg_nano.a(lib_a-strcmp.o)
                0x0000000008006640                strcmp
 .text          0x0000000008006654        0x0 /usr/bin/../lib/gcc/arm-none-eabi/7.3.1/../../../../arm-none-eabi/lib/thumb/v7-m/libg_nano.a(lib_a-strcpy.o)
 .text.strcpy   0x0000000008006654       0x10 /usr/bin/../lib/gcc/arm-none-eabi/7.3.1/../../../../arm-none-eabi/lib/thumb/v7-m/libg_nano.a(lib_a-strcpy.o)
                0x0000000008006654                strcpy
 .text          0x0000000008006664       0x10 /usr/bin/../lib/gcc/arm-none-eabi/7.3.1/../../../../arm-none-eabi/lib/thumb/v7-m/libg_nano.a(lib_a-strlen.o)
                0x0000000008006664                strlen
 .text          0x0000000008006674        0x0 /usr/bin/../lib/gcc/arm-none-eabi/7.3.1/../../../../arm-none-eabi/lib/thumb/v7-m/libg_nano.a(lib_a-vsnprintf.o)
 .text._vsnprintf_r
                0x0000000008006674       0x58 /usr/bin/../lib/gcc/arm-none-eabi/7.3.1/../../../../arm-none-eabi/lib/thumb/v7-m/libg_nano.a(lib_a-vsnprintf.o)
                0x0000000008006674                _vsnprintf_r
                0x0000000008006674                _vsniprintf_r
 .text.vsnprintf
                0x00000000080066cc       0x1c /usr/bin/../lib/gcc/arm-none-eabi/7.3.1/../../../../arm-none-eabi/lib/thumb/v7-m/libg_nano.a(lib_a-vsnprintf.o)
                0x00000000080066cc                vsnprintf
                0x00000000080066cc                vsniprintf
 .text          0x00000000080066e8        0x0 /usr/bin/../lib/gcc/arm-none-eabi/7.3.1/../../../../arm-none-eabi/lib/thumb/v7-m/libg_nano.a(lib_a-mlock.o)
 .text.__malloc_lock
                0x00000000080066e8        0x2 /usr/bin/../lib/gcc/arm-none-eabi/7.3.1/../../../../arm-none-eabi/lib/thumb/v7-m/libg_nano.a(lib_a-mlock.o)
                0x00000000080066e8                __malloc_lock
 .text.__malloc_unlock
                0x00000000080066ea        0x2 /usr/bin/../lib/gcc/arm-none-eabi/7.3.1/../../../../arm-none-eabi/lib/thumb/v7-m/libg_nano.a(lib_a-mlock.o)
                0x00000000080066ea                __malloc_unlock
 .text          0x00000000080066ec        0x0 /usr/bin/../lib/gcc/arm-none-eabi/7.3.1/../../../../arm-none-eabi/lib/thumb/v7-m/libg_nano.a(lib_a-nano-svfprintf.o)
 .text.__ssputs_r
                0x00000000080066ec       0xb4 /usr/bin/../lib/gcc/arm-none-eabi/7.3.1/../../../../arm-none-eabi/lib/thumb/v7-m/libg_nano.a(lib_a-nano-svfprintf.o)
                0x00000000080066ec                __ssputs_r
 .text.__ssprint_r
                0x00000000080067a0       0xf0 /usr/bin/../lib/gcc/arm-none-eabi/7.3.1/../../../../arm-none-eabi/lib/thumb/v7-m/libg_nano.a(lib_a-nano-svfprintf.o)
                0x00000000080067a0                __ssprint_r
 .text._svfprintf_r
                0x0000000008006890      0x1f0 /usr/bin/../lib/gcc/arm-none-eabi/7.3.1/../../../../arm-none-eabi/lib/thumb/v7-m/libg_nano.a(lib_a-nano-svfprintf.o)
                0x0000000008006890                _svfprintf_r
                0x0000000008006890                _svfiprintf_r
 .text          0x0000000008006a80        0x0 /usr/bin/../lib/gcc/arm-none-eabi/7.3.1/../../../../arm-none-eabi/lib/thumb/v7-m/libg_nano.a(lib_a-nano-vfprintf_i.o)
 .text._printf_common
                0x0000000008006a80       0xec /usr/bin/../lib/gcc/arm-none-eabi/7.3.1/../../../../arm-none-eabi/lib/thumb/v7-m/libg_nano.a(lib_a-nano-vfprintf_i.o)
                0x0000000008006a80                _printf_common
 .text._printf_i
                0x0000000008006b6c      0x224 /usr/bin/../lib/gcc/arm-none-eabi/7.3.1/../../../../arm-none-eabi/lib/thumb/v7-m/libg_nano.a(lib_a-nano-vfprintf_i.o)
                0x0000000008006b6c                _printf_i
 .text          0x0000000008006d90        0x0 /usr/bin/../lib/gcc/arm-none-eabi/7.3.1/../../../../arm-none-eabi/lib/thumb/v7-m/libg_nano.a(lib_a-memchr-stub.o)
 .text.memchr   0x0000000008006d90       0x1c /usr/bin/../lib/gcc/arm-none-eabi/7.3.1/../../../../arm-none-eabi/lib/thumb/v7-m/libg_nano.a(lib_a-memchr-stub.o)
                0x0000000008006d90                memchr
 .text          0x0000000008006dac        0x0 /usr/bin/../lib/gcc/arm-none-eabi/7.3.1/../../../../arm-none-eabi/lib/thumb/v7-m/libg_nano.a(lib_a-memmove.o)
 .text.memmove  0x0000000008006dac       0x32 /usr/bin/../lib/gcc/arm-none-eabi/7.3.1/../../../../arm-none-eabi/lib/thumb/v7-m/libg_nano.a(lib_a-memmove.o)
                0x0000000008006dac                memmove
 .text          0x0000000008006dde        0x0 /usr/bin/../lib/gcc/arm-none-eabi/7.3.1/../../../../arm-none-eabi/lib/thumb/v7-m/libg_nano.a(lib_a-nano-reallocr.o)
 .text._realloc_r
                0x0000000008006dde       0x4c /usr/bin/../lib/gcc/arm-none-eabi/7.3.1/../../../../arm-none-eabi/lib/thumb/v7-m/libg_nano.a(lib_a-nano-reallocr.o)
                0x0000000008006dde                _realloc_r
 .text          0x0000000008006e2a        0x0 /usr/bin/../lib/gcc/arm-none-eabi/7.3.1/../../../../arm-none-eabi/lib/thumb/v7-m/libg_nano.a(lib_a-nano-msizer.o)
 .text._malloc_usable_size_r
                0x0000000008006e2a       0x10 /usr/bin/../lib/gcc/arm-none-eabi/7.3.1/../../../../arm-none-eabi/lib/thumb/v7-m/libg_nano.a(lib_a-nano-msizer.o)
                0x0000000008006e2a                _malloc_usable_size_r
 *(.rodata .rodata.* .constdata .constdata.*)
 *fill*         0x0000000008006e3a        0x2 
 .rodata._ZTS7LedTask
                0x0000000008006e3c        0x9 obj/blink_app.o
                0x0000000008006e3c                typeinfo name for LedTask
 *fill*         0x0000000008006e45        0x3 
 .rodata._ZTI7LedTask
                0x0000000008006e48        0xc obj/blink_app.o
                0x0000000008006e48                typeinfo for LedTask
 .rodata._ZTV7LedTask
                0x0000000008006e54       0x14 obj/blink_app.o
                0x0000000008006e54                vtable for LedTask
 .rodata        0x0000000008006e68       0x34 obj/blink_app.o
                0x0000000008006e6c                vtable for BlinkApp
                0x0000000008006e84                typeinfo name for BlinkApp
                0x0000000008006e90                typeinfo for BlinkApp
 .rodata.str1.4
                0x0000000008006e9c        0x8 obj/blink_app.o
 .rodata        0x0000000008006ea4        0x8 obj/common.o
                0x0000000008006ea4                macs::String::NEWLINE
                0x0000000008006ea8                macs::g_zstr
 .rodata.str1.4
                0x0000000008006eac       0xb7 obj/common.o
                                         0xb9 (size before relaxing)
 *fill*         0x0000000008006f63        0x1 
 .rodata._ZTSN4macs8IdleTaskE
                0x0000000008006f64       0x11 obj/scheduler.o
                0x0000000008006f64                typeinfo name for macs::IdleTask
 *fill*         0x0000000008006f75        0x3 
 .rodata._ZTIN4macs8IdleTaskE
                0x0000000008006f78        0xc obj/scheduler.o
                0x0000000008006f78                typeinfo for macs::IdleTask
 .rodata._ZTVN4macs8IdleTaskE
                0x0000000008006f84       0x14 obj/scheduler.o
                0x0000000008006f84                vtable for macs::IdleTask
 .rodata.str1.4
                0x0000000008006f98        0x5 obj/scheduler.o
 *fill*         0x0000000008006f9d        0x3 
 .rodata._ZTSN4macs4Task14UnblockFunctorE
                0x0000000008006fa0       0x1d obj/task.o
                0x0000000008006fa0                typeinfo name for macs::Task::UnblockFunctor
 *fill*         0x0000000008006fbd        0x3 
 .rodata._ZTIN4macs4Task14UnblockFunctorE
                0x0000000008006fc0        0x8 obj/task.o
                0x0000000008006fc0                typeinfo for macs::Task::UnblockFunctor
 .rodata        0x0000000008006fc8       0x98 obj/task.o
                0x0000000008006fc8                vtable for macs::Task
                0x0000000008006fdc                vtable for macs::TaskIrq
                0x0000000008006ff4                typeinfo name for macs::Task
                0x0000000008007004                typeinfo for macs::Task
                0x000000000800700c                typeinfo name for macs::TaskIrq
                0x000000000800701c                typeinfo for macs::TaskIrq
                0x0000000008007028                typeinfo name for macs::SyncObject
                0x000000000800703c                typeinfo for macs::SyncObject
                0x0000000008007048                vtable for macs::SyncObject
 .rodata.str1.4
                0x0000000008007060       0x7a obj/task.o
 *fill*         0x00000000080070da        0x2 
 .rodata.str1.4
                0x00000000080070dc        0x4 obj/version.o
 .rodata        0x00000000080070e0       0x38 obj/application.o
                0x00000000080070e0                vtable for macs::Application
                0x00000000080070f8                typeinfo name for macs::Application
                0x0000000008007110                typeinfo for macs::Application
 .rodata._ZTSN4macs5EventE
                0x0000000008007118        0xe obj/event.o
                0x0000000008007118                typeinfo name for macs::Event
 *fill*         0x0000000008007126        0x2 
 .rodata._ZTIN4macs5EventE
                0x0000000008007128        0xc obj/event.o
                0x0000000008007128                typeinfo for macs::Event
 .rodata._ZTVN4macs5EventE
                0x0000000008007134       0x18 obj/event.o
                0x0000000008007134                vtable for macs::Event
 .rodata._ZTSN4macs9SemaphoreE
                0x000000000800714c       0x12 obj/semaphore.o
                0x000000000800714c                typeinfo name for macs::Semaphore
 *fill*         0x000000000800715e        0x2 
 .rodata._ZTIN4macs9SemaphoreE
                0x0000000008007160        0xc obj/semaphore.o
                0x0000000008007160                typeinfo for macs::Semaphore
 .rodata._ZTVN4macs9SemaphoreE
                0x000000000800716c       0x18 obj/semaphore.o
                0x000000000800716c                vtable for macs::Semaphore
 .rodata._ZTSN4macs15SyncOwnedObjectE
                0x0000000008007184       0x19 obj/mutex.o
                0x0000000008007184                typeinfo name for macs::SyncOwnedObject
 *fill*         0x000000000800719d        0x3 
 .rodata._ZTIN4macs15SyncOwnedObjectE
                0x00000000080071a0        0xc obj/mutex.o
                0x00000000080071a0                typeinfo for macs::SyncOwnedObject
 .rodata        0x00000000080071ac       0x3c obj/mutex.o
                0x00000000080071ac                vtable for macs::Mutex
                0x00000000080071cc                typeinfo name for macs::Mutex
                0x00000000080071dc                typeinfo for macs::Mutex
 .rodata._ZTIN10__cxxabiv117__class_type_infoE
                0x00000000080071e8        0xc /usr/bin/../lib/gcc/arm-none-eabi/7.3.1/../../../../arm-none-eabi/lib/thumb/v7-m/libstdc++_nano.a(class_type_info.o)
                0x00000000080071e8                typeinfo for __cxxabiv1::__class_type_info
 .rodata._ZTSN10__cxxabiv117__class_type_infoE
                0x00000000080071f4       0x22 /usr/bin/../lib/gcc/arm-none-eabi/7.3.1/../../../../arm-none-eabi/lib/thumb/v7-m/libstdc++_nano.a(class_type_info.o)
                0x00000000080071f4                typeinfo name for __cxxabiv1::__class_type_info
 *fill*         0x0000000008007216        0x2 
 .rodata._ZTVN10__cxxabiv117__class_type_infoE
                0x0000000008007218       0x2c /usr/bin/../lib/gcc/arm-none-eabi/7.3.1/../../../../arm-none-eabi/lib/thumb/v7-m/libstdc++_nano.a(class_type_info.o)
                0x0000000008007218                vtable for __cxxabiv1::__class_type_info
 .rodata._ZTIN10__cxxabiv120__si_class_type_infoE
                0x0000000008007244        0xc /usr/bin/../lib/gcc/arm-none-eabi/7.3.1/../../../../arm-none-eabi/lib/thumb/v7-m/libstdc++_nano.a(si_class_type_info.o)
                0x0000000008007244                typeinfo for __cxxabiv1::__si_class_type_info
 .rodata._ZTSN10__cxxabiv120__si_class_type_infoE
                0x0000000008007250       0x25 /usr/bin/../lib/gcc/arm-none-eabi/7.3.1/../../../../arm-none-eabi/lib/thumb/v7-m/libstdc++_nano.a(si_class_type_info.o)
                0x0000000008007250                typeinfo name for __cxxabiv1::__si_class_type_info
 *fill*         0x0000000008007275        0x3 
 .rodata._ZTVN10__cxxabiv120__si_class_type_infoE
                0x0000000008007278       0x2c /usr/bin/../lib/gcc/arm-none-eabi/7.3.1/../../../../arm-none-eabi/lib/thumb/v7-m/libstdc++_nano.a(si_class_type_info.o)
                0x0000000008007278                vtable for __cxxabiv1::__si_class_type_info
 .rodata._ZNKSt13bad_exception4whatEv.str1.1
                0x00000000080072a4       0x13 /usr/bin/../lib/gcc/arm-none-eabi/7.3.1/../../../../arm-none-eabi/lib/thumb/v7-m/libstdc++_nano.a(eh_exception.o)
 .rodata._ZNKSt9exception4whatEv.str1.1
                0x00000000080072b7        0xf /usr/bin/../lib/gcc/arm-none-eabi/7.3.1/../../../../arm-none-eabi/lib/thumb/v7-m/libstdc++_nano.a(eh_exception.o)
 *fill*         0x00000000080072c6        0x2 
 .rodata._ZTIN10__cxxabiv115__forced_unwindE
                0x00000000080072c8        0x8 /usr/bin/../lib/gcc/arm-none-eabi/7.3.1/../../../../arm-none-eabi/lib/thumb/v7-m/libstdc++_nano.a(eh_exception.o)
                0x00000000080072c8                typeinfo for __cxxabiv1::__forced_unwind
 .rodata._ZTIN10__cxxabiv119__foreign_exceptionE
                0x00000000080072d0        0x8 /usr/bin/../lib/gcc/arm-none-eabi/7.3.1/../../../../arm-none-eabi/lib/thumb/v7-m/libstdc++_nano.a(eh_exception.o)
                0x00000000080072d0                typeinfo for __cxxabiv1::__foreign_exception
 .rodata._ZTISt13bad_exception
                0x00000000080072d8        0xc /usr/bin/../lib/gcc/arm-none-eabi/7.3.1/../../../../arm-none-eabi/lib/thumb/v7-m/libstdc++_nano.a(eh_exception.o)
                0x00000000080072d8                typeinfo for std::bad_exception
 .rodata._ZTISt9exception
                0x00000000080072e4        0x8 /usr/bin/../lib/gcc/arm-none-eabi/7.3.1/../../../../arm-none-eabi/lib/thumb/v7-m/libstdc++_nano.a(eh_exception.o)
                0x00000000080072e4                typeinfo for std::exception
 .rodata._ZTSN10__cxxabiv115__forced_unwindE
                0x00000000080072ec       0x20 /usr/bin/../lib/gcc/arm-none-eabi/7.3.1/../../../../arm-none-eabi/lib/thumb/v7-m/libstdc++_nano.a(eh_exception.o)
                0x00000000080072ec                typeinfo name for __cxxabiv1::__forced_unwind
 .rodata._ZTSN10__cxxabiv119__foreign_exceptionE
                0x000000000800730c       0x24 /usr/bin/../lib/gcc/arm-none-eabi/7.3.1/../../../../arm-none-eabi/lib/thumb/v7-m/libstdc++_nano.a(eh_exception.o)
                0x000000000800730c                typeinfo name for __cxxabiv1::__foreign_exception
 .rodata._ZTSSt13bad_exception
                0x0000000008007330       0x12 /usr/bin/../lib/gcc/arm-none-eabi/7.3.1/../../../../arm-none-eabi/lib/thumb/v7-m/libstdc++_nano.a(eh_exception.o)
                0x0000000008007330                typeinfo name for std::bad_exception
 .rodata._ZTSSt9exception
                0x0000000008007342        0xd /usr/bin/../lib/gcc/arm-none-eabi/7.3.1/../../../../arm-none-eabi/lib/thumb/v7-m/libstdc++_nano.a(eh_exception.o)
                0x0000000008007342                typeinfo name for std::exception
 *fill*         0x000000000800734f        0x1 
 .rodata._ZTVN10__cxxabiv115__forced_unwindE
                0x0000000008007350       0x14 /usr/bin/../lib/gcc/arm-none-eabi/7.3.1/../../../../arm-none-eabi/lib/thumb/v7-m/libstdc++_nano.a(eh_exception.o)
                0x0000000008007350                vtable for __cxxabiv1::__forced_unwind
 .rodata._ZTVN10__cxxabiv119__foreign_exceptionE
                0x0000000008007364       0x14 /usr/bin/../lib/gcc/arm-none-eabi/7.3.1/../../../../arm-none-eabi/lib/thumb/v7-m/libstdc++_nano.a(eh_exception.o)
                0x0000000008007364                vtable for __cxxabiv1::__foreign_exception
 .rodata._ZTVSt13bad_exception
                0x0000000008007378       0x14 /usr/bin/../lib/gcc/arm-none-eabi/7.3.1/../../../../arm-none-eabi/lib/thumb/v7-m/libstdc++_nano.a(eh_exception.o)
                0x0000000008007378                vtable for std::bad_exception
 .rodata._ZTVSt9exception
                0x000000000800738c       0x14 /usr/bin/../lib/gcc/arm-none-eabi/7.3.1/../../../../arm-none-eabi/lib/thumb/v7-m/libstdc++_nano.a(eh_exception.o)
                0x000000000800738c                vtable for std::exception
 .rodata._ZTISt9type_info
                0x00000000080073a0        0x8 /usr/bin/../lib/gcc/arm-none-eabi/7.3.1/../../../../arm-none-eabi/lib/thumb/v7-m/libstdc++_nano.a(tinfo.o)
                0x00000000080073a0                typeinfo for std::type_info
 .rodata._ZTSSt9type_info
                0x00000000080073a8        0xd /usr/bin/../lib/gcc/arm-none-eabi/7.3.1/../../../../arm-none-eabi/lib/thumb/v7-m/libstdc++_nano.a(tinfo.o)
                0x00000000080073a8                typeinfo name for std::type_info
 *fill*         0x00000000080073b5        0x3 
 .rodata._ZTVSt9type_info
                0x00000000080073b8       0x20 /usr/bin/../lib/gcc/arm-none-eabi/7.3.1/../../../../arm-none-eabi/lib/thumb/v7-m/libstdc++_nano.a(tinfo.o)
                0x00000000080073b8                vtable for std::type_info
 .rodata.__cxa_atexit_dummy
                0x00000000080073d8        0x4 /usr/bin/../lib/gcc/arm-none-eabi/7.3.1/../../../../arm-none-eabi/lib/thumb/v7-m/libg_nano.a(lib_a-cxa_atexit.o)
                0x00000000080073d8                __cxa_atexit_dummy
 .rodata._global_impure_ptr
                0x00000000080073dc        0x4 /usr/bin/../lib/gcc/arm-none-eabi/7.3.1/../../../../arm-none-eabi/lib/thumb/v7-m/libg_nano.a(lib_a-impure.o)
                0x00000000080073dc                _global_impure_ptr
 .rodata.__on_exit_args
                0x00000000080073e0        0x4 /usr/bin/../lib/gcc/arm-none-eabi/7.3.1/../../../../arm-none-eabi/lib/thumb/v7-m/libg_nano.a(lib_a-on_exit_args.o)
                0x00000000080073e0                __on_exit_args
 .rodata._svfprintf_r.str1.1
                0x00000000080073e4       0x11 /usr/bin/../lib/gcc/arm-none-eabi/7.3.1/../../../../arm-none-eabi/lib/thumb/v7-m/libg_nano.a(lib_a-nano-svfprintf.o)
 .rodata._printf_i.str1.1
                0x00000000080073f5       0x22 /usr/bin/../lib/gcc/arm-none-eabi/7.3.1/../../../../arm-none-eabi/lib/thumb/v7-m/libg_nano.a(lib_a-nano-vfprintf_i.o)
 *(vtable)
 *(.eh_frame*)
 *(.glue_7)
 .glue_7        0x0000000008007417        0x0 linker stubs
 *(.glue_7t)
 .glue_7t       0x0000000008007417        0x0 linker stubs

.vfp11_veneer   0x0000000008007418        0x0
 .vfp11_veneer  0x0000000008007418        0x0 linker stubs

.v4_bx          0x0000000008007418        0x0
 .v4_bx         0x0000000008007418        0x0 linker stubs

.iplt           0x0000000008007418        0x0
 .iplt          0x0000000008007418        0x0 obj/blink_app.o

.ARM.extab      0x0000000008007418      0x504
 *(.ARM.extab* .gnu.linkonce.armextab.*)
 .ARM.extab.text._ZN7LedTask7ExecuteEv
                0x0000000008007418        0x0 obj/blink_app.o
 .ARM.extab.text._ZN7LedTaskD2Ev
                0x0000000008007418        0x0 obj/blink_app.o
 .ARM.extab.text._ZN7LedTaskD0Ev
                0x0000000008007418        0x0 obj/blink_app.o
 .ARM.extab     0x0000000008007418       0x18 obj/blink_app.o
 .ARM.extab.text._ZN8BlinkAppD2Ev
                0x0000000008007430        0x0 obj/blink_app.o
 .ARM.extab.text._ZN8BlinkAppD0Ev
                0x0000000008007430        0x0 obj/blink_app.o
 .ARM.extab     0x0000000008007430       0x18 obj/main.o
 .ARM.extab     0x0000000008007448       0x48 obj/common.o
 .ARM.extab.text._ZN4macs8IdleTask7ExecuteEv
                0x0000000008007490        0x0 obj/scheduler.o
 .ARM.extab     0x0000000008007490      0x18c obj/scheduler.o
 .ARM.extab.text._ZN4macs8IdleTaskD2Ev
                0x000000000800761c        0x0 obj/scheduler.o
 .ARM.extab.text._ZN4macs8IdleTaskD0Ev
                0x000000000800761c        0x0 obj/scheduler.o
 .ARM.extab     0x000000000800761c       0xa4 obj/task.o
 .ARM.extab.text._ZN4macs4Task8Execute_EPS0_
                0x00000000080076c0        0x0 obj/task.o
 .ARM.extab     0x00000000080076c0        0x0 obj/version.o
 .ARM.extab.text._ZN4macs11Application10InitializeEv
                0x00000000080076c0        0x0 obj/application.o
 .ARM.extab     0x00000000080076c0        0xc obj/application.o
 .ARM.extab     0x00000000080076cc       0x34 obj/event.o
 .ARM.extab     0x0000000008007700        0x0 obj/buffer.o
 .ARM.extab     0x0000000008007700       0xd8 obj/memory_management_operators.o
 .ARM.extab     0x00000000080077d8       0x3d obj/memory_manager.o
 .ARM.extab.text._ZN13MemoryManager10InitializeILm16384EEEvv
                0x0000000008007815        0x0 obj/memory_manager.o
 *fill*         0x0000000008007815        0x3 
 .ARM.extab     0x0000000008007818       0x3c obj/semaphore.o
 .ARM.extab     0x0000000008007854       0x68 obj/mutex.o
 .ARM.extab     0x00000000080078bc       0x18 obj/_cxx.o
 .ARM.extab     0x00000000080078d4        0x0 obj/system.o
 .ARM.extab     0x00000000080078d4       0x30 obj/cortex_m.o
 .ARM.extab     0x0000000008007904        0x0 /usr/bin/../lib/gcc/arm-none-eabi/7.3.1/thumb/v7-m/libgcc.a(unwind-arm.o)
 .ARM.extab     0x0000000008007904       0x18 /usr/bin/../lib/gcc/arm-none-eabi/7.3.1/thumb/v7-m/libgcc.a(pr-support.o)
                0x000000000800791c                . = ALIGN (0x4)
                0x000000000800791c                __exidx_start = .

.ARM.exidx      0x000000000800791c      0x4d8
 *(.ARM.exidx* .gnu.linkonce.armexidx.*)
 .ARM.exidx.text._ZN7LedTask7ExecuteEv
                0x000000000800792c        0x8 obj/blink_app.o
 .ARM.exidx.text._ZN7LedTaskD2Ev
                0x0000000008007934        0x8 obj/blink_app.o
 .ARM.exidx.text._ZN7LedTaskD0Ev
                0x000000000800793c        0x0 obj/blink_app.o
                                          0x8 (size before relaxing)
 .ARM.exidx     0x000000000800791c       0x10 obj/blink_app.o
                                         0x18 (size before relaxing)
 .ARM.exidx.text._ZN8BlinkAppD2Ev
                0x000000000800793c        0x0 obj/blink_app.o
                                          0x8 (size before relaxing)
 .ARM.exidx.text._ZN8BlinkAppD0Ev
                0x000000000800793c        0x0 obj/blink_app.o
                                          0x8 (size before relaxing)
 .ARM.exidx     0x000000000800793c        0x8 obj/main.o
 .ARM.exidx     0x0000000008007944       0x68 obj/common.o
                                         0x90 (size before relaxing)
 .ARM.exidx.text._ZN4macs8IdleTask7ExecuteEv
                0x0000000008007ab4        0x0 obj/scheduler.o
                                          0x8 (size before relaxing)
 .ARM.exidx     0x00000000080079ac      0x108 obj/scheduler.o
                                        0x130 (size before relaxing)
 .ARM.exidx.text._ZN4macs8IdleTaskD2Ev
                0x0000000008007ab4        0x0 obj/scheduler.o
                                          0x8 (size before relaxing)
 .ARM.exidx.text._ZN4macs8IdleTaskD0Ev
                0x0000000008007ab4        0x0 obj/scheduler.o
                                          0x8 (size before relaxing)
 .ARM.exidx     0x0000000008007ab4       0xc8 obj/task.o
                                         0xe8 (size before relaxing)
 .ARM.exidx.text._ZN4macs4Task8Execute_EPS0_
                0x0000000008007b7c        0x8 obj/task.o
 .ARM.exidx     0x0000000008007b84        0x8 obj/version.o
 .ARM.exidx.text._ZN4macs11Application10InitializeEv
                0x0000000008007bb4        0x8 obj/application.o
 .ARM.exidx     0x0000000008007b8c       0x28 obj/application.o
                                         0x50 (size before relaxing)
 .ARM.exidx     0x0000000008007bbc       0x20 obj/event.o
                                         0x30 (size before relaxing)
 .ARM.exidx     0x0000000008007bdc       0x30 obj/buffer.o
                                         0x48 (size before relaxing)
 .ARM.exidx     0x0000000008007c0c       0x40 obj/memory_management_operators.o
 .ARM.exidx     0x0000000008007c4c       0x18 obj/memory_manager.o
                                         0x28 (size before relaxing)
 .ARM.exidx.text._ZN13MemoryManager10InitializeILm16384EEEvv
                0x0000000008007c64        0x8 obj/memory_manager.o
 .ARM.exidx     0x0000000008007c6c       0x20 obj/semaphore.o
                                         0x30 (size before relaxing)
 .ARM.exidx     0x0000000008007c8c       0x50 obj/mutex.o
                                         0x58 (size before relaxing)
 .ARM.exidx     0x0000000008007cdc       0x10 obj/_cxx.o
 .ARM.exidx     0x0000000008007cec        0x8 obj/system.o
                                         0x10 (size before relaxing)
 .ARM.exidx     0x0000000008007cf4       0x50 obj/cortex_m.o
                                         0xe8 (size before relaxing)
 .ARM.exidx     0x0000000008007d44       0x78 /usr/bin/../lib/gcc/arm-none-eabi/7.3.1/thumb/v7-m/libgcc.a(unwind-arm.o)
                                         0xd8 (size before relaxing)
 .ARM.exidx     0x0000000008007dbc       0x38 /usr/bin/../lib/gcc/arm-none-eabi/7.3.1/thumb/v7-m/libgcc.a(pr-support.o)
                                         0x48 (size before relaxing)
                0x0000000008007df4                __exidx_end = .

.rel.dyn        0x0000000008007df4        0x0
 .rel.iplt      0x0000000008007df4        0x0 obj/blink_app.o
                0x0000000008007df4                . = ALIGN (0x4)
                0x0000000008007df4                _etext = .
                0x0000000008007df4                __etext = .
                0x0000000008007df4                _sidata = LOADADDR (.data)

.data           0x0000000020000000       0xbc load address 0x0000000008007df4
 FILL mask 0xff
                0x0000000020000000                __data_start__ = .
 *(.data_begin .data_begin.*)
 *(.data .data.*)
 .data          0x0000000020000000        0x0 obj/blink_app.o
 .data          0x0000000020000000        0x0 obj/main.o
 .data          0x0000000020000000        0x4 obj/common.o
                0x0000000020000000                SystemBase::m_tick_rate_hz
 .data          0x0000000020000004       0x3c obj/scheduler.o
                0x0000000020000004                svcMethods
 .data          0x0000000020000040        0x0 obj/task.o
 .data          0x0000000020000040        0x0 obj/version.o
 .data          0x0000000020000040        0x0 obj/application.o
 .data          0x0000000020000040        0x0 obj/event.o
 .data          0x0000000020000040        0x0 obj/buffer.o
 .data          0x0000000020000040        0x0 obj/memory_management_operators.o
 .data          0x0000000020000040        0x0 obj/memory_manager.o
 .data          0x0000000020000040        0x0 obj/profiler.o
 .data          0x0000000020000040        0x0 obj/semaphore.o
 .data          0x0000000020000040        0x0 obj/mutex.o
 .data          0x0000000020000040        0x0 obj/critical_section.o
 .data          0x0000000020000040        0x0 obj/_cxx.o
 .data          0x0000000020000040        0x0 obj/timer.o
 .data          0x0000000020000040        0x0 obj/system.o
 .data          0x0000000020000040        0x0 obj/cortex_m.o
 .data          0x0000000020000040        0x0 obj/vectors.o
 .data          0x0000000020000040        0x0 obj/exception_handlers.o
 .data          0x0000000020000040        0x0 obj/initialize_hardware.o
 .data          0x0000000020000040        0x0 obj/reset_hardware.o
 .data          0x0000000020000040        0x0 obj/startup.o
 .data          0x0000000020000040        0xc obj/_syscalls.o
                0x0000000020000048                environ
 .data          0x000000002000004c        0x0 obj/_exit.o
 .data          0x000000002000004c        0x0 obj/_sbrk.o
 .data          0x000000002000004c        0x4 obj/system_MDR32F9Qx.o
                0x000000002000004c                SystemCoreClock
 .data          0x0000000020000050        0x0 obj/MDR32F9Qx_adc.o
 .data          0x0000000020000050        0x0 obj/MDR32F9Qx_port.o
 .data          0x0000000020000050        0x0 obj/MDR32F9Qx_rst_clk.o
 .data          0x0000000020000050        0x0 obj/MDR32F9Qx_timer.o
 .data          0x0000000020000050        0x0 obj/MDR32F9Qx_uart.o
 .data          0x0000000020000050        0x0 obj/MDR32F9Qx_ebc.o
 .data          0x0000000020000050        0x0 obj/svc_handler.o
 .data          0x0000000020000050        0x0 obj/hard_fault_handler.o
 .data          0x0000000020000050        0x0 obj/mpu_fault_handler.o
 .data          0x0000000020000050        0x0 obj/svc_exec_privileged.o
 .data          0x0000000020000050        0x0 obj/pendsv_handler.o
 .data          0x0000000020000050        0x0 /usr/bin/../lib/gcc/arm-none-eabi/7.3.1/../../../../arm-none-eabi/lib/thumb/v7-m/libstdc++_nano.a(eh_call.o)
 .data          0x0000000020000050        0x0 /usr/bin/../lib/gcc/arm-none-eabi/7.3.1/../../../../arm-none-eabi/lib/thumb/v7-m/libstdc++_nano.a(eh_personality.o)
 .data          0x0000000020000050        0x0 /usr/bin/../lib/gcc/arm-none-eabi/7.3.1/../../../../arm-none-eabi/lib/thumb/v7-m/libstdc++_nano.a(eh_arm.o)
 .data          0x0000000020000050        0x0 /usr/bin/../lib/gcc/arm-none-eabi/7.3.1/../../../../arm-none-eabi/lib/thumb/v7-m/libstdc++_nano.a(eh_catch.o)
 .data          0x0000000020000050        0x0 /usr/bin/../lib/gcc/arm-none-eabi/7.3.1/../../../../arm-none-eabi/lib/thumb/v7-m/libstdc++_nano.a(guard.o)
 .data          0x0000000020000050        0x0 /usr/bin/../lib/gcc/arm-none-eabi/7.3.1/../../../../arm-none-eabi/lib/thumb/v7-m/libstdc++_nano.a(atexit_arm.o)
 .data          0x0000000020000050        0x0 /usr/bin/../lib/gcc/arm-none-eabi/7.3.1/../../../../arm-none-eabi/lib/thumb/v7-m/libstdc++_nano.a(class_type_info.o)
 .data          0x0000000020000050        0x0 /usr/bin/../lib/gcc/arm-none-eabi/7.3.1/../../../../arm-none-eabi/lib/thumb/v7-m/libstdc++_nano.a(eh_terminate.o)
 .data          0x0000000020000050        0x0 /usr/bin/../lib/gcc/arm-none-eabi/7.3.1/../../../../arm-none-eabi/lib/thumb/v7-m/libstdc++_nano.a(eh_unex_handler.o)
 .data._ZN10__cxxabiv120__unexpected_handlerE
                0x0000000020000050        0x4 /usr/bin/../lib/gcc/arm-none-eabi/7.3.1/../../../../arm-none-eabi/lib/thumb/v7-m/libstdc++_nano.a(eh_unex_handler.o)
                0x0000000020000050                __cxxabiv1::__unexpected_handler
 .data          0x0000000020000054        0x0 /usr/bin/../lib/gcc/arm-none-eabi/7.3.1/../../../../arm-none-eabi/lib/thumb/v7-m/libstdc++_nano.a(eh_term_handler.o)
 .data._ZN10__cxxabiv119__terminate_handlerE
                0x0000000020000054        0x4 /usr/bin/../lib/gcc/arm-none-eabi/7.3.1/../../../../arm-none-eabi/lib/thumb/v7-m/libstdc++_nano.a(eh_term_handler.o)
                0x0000000020000054                __cxxabiv1::__terminate_handler
 .data          0x0000000020000058        0x0 /usr/bin/../lib/gcc/arm-none-eabi/7.3.1/../../../../arm-none-eabi/lib/thumb/v7-m/libstdc++_nano.a(eh_globals.o)
 .data          0x0000000020000058        0x0 /usr/bin/../lib/gcc/arm-none-eabi/7.3.1/../../../../arm-none-eabi/lib/thumb/v7-m/libstdc++_nano.a(eh_aux_runtime.o)
 .data          0x0000000020000058        0x0 /usr/bin/../lib/gcc/arm-none-eabi/7.3.1/../../../../arm-none-eabi/lib/thumb/v7-m/libstdc++_nano.a(si_class_type_info.o)
 .data          0x0000000020000058        0x0 /usr/bin/../lib/gcc/arm-none-eabi/7.3.1/../../../../arm-none-eabi/lib/thumb/v7-m/libstdc++_nano.a(del_ops.o)
 .data          0x0000000020000058        0x0 /usr/bin/../lib/gcc/arm-none-eabi/7.3.1/../../../../arm-none-eabi/lib/thumb/v7-m/libstdc++_nano.a(eh_exception.o)
 .data          0x0000000020000058        0x0 /usr/bin/../lib/gcc/arm-none-eabi/7.3.1/../../../../arm-none-eabi/lib/thumb/v7-m/libstdc++_nano.a(tinfo.o)
 .data          0x0000000020000058        0x0 /usr/bin/../lib/gcc/arm-none-eabi/7.3.1/thumb/v7-m/libgcc.a(_arm_addsubdf3.o)
 .data          0x0000000020000058        0x0 /usr/bin/../lib/gcc/arm-none-eabi/7.3.1/thumb/v7-m/libgcc.a(_arm_muldivdf3.o)
 .data          0x0000000020000058        0x0 /usr/bin/../lib/gcc/arm-none-eabi/7.3.1/thumb/v7-m/libgcc.a(_arm_fixdfsi.o)
 .data          0x0000000020000058        0x0 /usr/bin/../lib/gcc/arm-none-eabi/7.3.1/thumb/v7-m/libgcc.a(unwind-arm.o)
 .data          0x0000000020000058        0x0 /usr/bin/../lib/gcc/arm-none-eabi/7.3.1/thumb/v7-m/libgcc.a(libunwind.o)
 .data          0x0000000020000058        0x0 /usr/bin/../lib/gcc/arm-none-eabi/7.3.1/thumb/v7-m/libgcc.a(pr-support.o)
 .data          0x0000000020000058        0x0 /usr/bin/../lib/gcc/arm-none-eabi/7.3.1/../../../../arm-none-eabi/lib/thumb/v7-m/libg_nano.a(lib_a-cxa_atexit.o)
 .data          0x0000000020000058        0x0 /usr/bin/../lib/gcc/arm-none-eabi/7.3.1/../../../../arm-none-eabi/lib/thumb/v7-m/libg_nano.a(lib_a-errno.o)
 .data          0x0000000020000058        0x0 /usr/bin/../lib/gcc/arm-none-eabi/7.3.1/../../../../arm-none-eabi/lib/thumb/v7-m/libg_nano.a(lib_a-impure.o)
 .data._impure_ptr
                0x0000000020000058        0x4 /usr/bin/../lib/gcc/arm-none-eabi/7.3.1/../../../../arm-none-eabi/lib/thumb/v7-m/libg_nano.a(lib_a-impure.o)
                0x0000000020000058                _impure_ptr
 .data.impure_data
                0x000000002000005c       0x60 /usr/bin/../lib/gcc/arm-none-eabi/7.3.1/../../../../arm-none-eabi/lib/thumb/v7-m/libg_nano.a(lib_a-impure.o)
 .data          0x00000000200000bc        0x0 /usr/bin/../lib/gcc/arm-none-eabi/7.3.1/../../../../arm-none-eabi/lib/thumb/v7-m/libg_nano.a(lib_a-malloc.o)
 .data          0x00000000200000bc        0x0 /usr/bin/../lib/gcc/arm-none-eabi/7.3.1/../../../../arm-none-eabi/lib/thumb/v7-m/libg_nano.a(lib_a-memcmp.o)
 .data          0x00000000200000bc        0x0 /usr/bin/../lib/gcc/arm-none-eabi/7.3.1/../../../../arm-none-eabi/lib/thumb/v7-m/libg_nano.a(lib_a-memcpy-stub.o)
 .data          0x00000000200000bc        0x0 /usr/bin/../lib/gcc/arm-none-eabi/7.3.1/../../../../arm-none-eabi/lib/thumb/v7-m/libg_nano.a(lib_a-nano-freer.o)
 .data          0x00000000200000bc        0x0 /usr/bin/../lib/gcc/arm-none-eabi/7.3.1/../../../../arm-none-eabi/lib/thumb/v7-m/libg_nano.a(lib_a-nano-mallocr.o)
 .data          0x00000000200000bc        0x0 /usr/bin/../lib/gcc/arm-none-eabi/7.3.1/../../../../arm-none-eabi/lib/thumb/v7-m/libg_nano.a(lib_a-on_exit_args.o)
 .data          0x00000000200000bc        0x0 /usr/bin/../lib/gcc/arm-none-eabi/7.3.1/../../../../arm-none-eabi/lib/thumb/v7-m/libg_nano.a(lib_a-rand.o)
 .data          0x00000000200000bc        0x0 /usr/bin/../lib/gcc/arm-none-eabi/7.3.1/../../../../arm-none-eabi/lib/thumb/v7-m/libg_nano.a(lib_a-sbrkr.o)
 .data          0x00000000200000bc        0x0 /usr/bin/../lib/gcc/arm-none-eabi/7.3.1/../../../../arm-none-eabi/lib/thumb/v7-m/libg_nano.a(lib_a-strcmp.o)
 .data          0x00000000200000bc        0x0 /usr/bin/../lib/gcc/arm-none-eabi/7.3.1/../../../../arm-none-eabi/lib/thumb/v7-m/libg_nano.a(lib_a-strcpy.o)
 .data          0x00000000200000bc        0x0 /usr/bin/../lib/gcc/arm-none-eabi/7.3.1/../../../../arm-none-eabi/lib/thumb/v7-m/libg_nano.a(lib_a-strlen.o)
 .data          0x00000000200000bc        0x0 /usr/bin/../lib/gcc/arm-none-eabi/7.3.1/../../../../arm-none-eabi/lib/thumb/v7-m/libg_nano.a(lib_a-vsnprintf.o)
 .data          0x00000000200000bc        0x0 /usr/bin/../lib/gcc/arm-none-eabi/7.3.1/../../../../arm-none-eabi/lib/thumb/v7-m/libg_nano.a(lib_a-mlock.o)
 .data          0x00000000200000bc        0x0 /usr/bin/../lib/gcc/arm-none-eabi/7.3.1/../../../../arm-none-eabi/lib/thumb/v7-m/libg_nano.a(lib_a-nano-svfprintf.o)
 .data          0x00000000200000bc        0x0 /usr/bin/../lib/gcc/arm-none-eabi/7.3.1/../../../../arm-none-eabi/lib/thumb/v7-m/libg_nano.a(lib_a-nano-vfprintf_i.o)
 .data          0x00000000200000bc        0x0 /usr/bin/../lib/gcc/arm-none-eabi/7.3.1/../../../../arm-none-eabi/lib/thumb/v7-m/libg_nano.a(lib_a-memchr-stub.o)
 .data          0x00000000200000bc        0x0 /usr/bin/../lib/gcc/arm-none-eabi/7.3.1/../../../../arm-none-eabi/lib/thumb/v7-m/libg_nano.a(lib_a-memmove.o)
 .data          0x00000000200000bc        0x0 /usr/bin/../lib/gcc/arm-none-eabi/7.3.1/../../../../arm-none-eabi/lib/thumb/v7-m/libg_nano.a(lib_a-nano-reallocr.o)
 .data          0x00000000200000bc        0x0 /usr/bin/../lib/gcc/arm-none-eabi/7.3.1/../../../../arm-none-eabi/lib/thumb/v7-m/libg_nano.a(lib_a-nano-msizer.o)
 *(.data_end .data_end.*)
                0x00000000200000bc                . = ALIGN (0x4)
                0x00000000200000bc                __data_end__ = .

.igot.plt       0x00000000200000bc        0x0 load address 0x0000000008007eb0
 .igot.plt      0x00000000200000bc        0x0 obj/blink_app.o

.bss            0x00000000200000bc      0x1d4 load address 0x0000000008007eb0
                0x00000000200000bc                __bss_start__ = .
 *(.bss_begin .bss_begin.*)
 *(.bss .bss.*)
 .bss           0x00000000200000bc        0x1 obj/blink_app.o
                0x00000000200000bc                Led
 .bss           0x00000000200000bd        0x0 obj/main.o
 *fill*         0x00000000200000bd        0x3 
 .bss           0x00000000200000c0       0x20 obj/common.o
                0x00000000200000dc                macs::PrnFmt::m_buf
 .bss           0x00000000200000e0       0x24 obj/scheduler.o
                0x00000000200000e0                macs::Scheduler::m_instance
 .bss           0x0000000020000104        0x0 obj/task.o
 .bss           0x0000000020000104        0x0 obj/version.o
 .bss           0x0000000020000104       0x50 obj/application.o
                0x0000000020000104                macs::Application::m_app
 .bss           0x0000000020000154        0x0 obj/event.o
 .bss           0x0000000020000154        0x0 obj/buffer.o
 .bss           0x0000000020000154        0x0 obj/memory_management_operators.o
 .bss           0x0000000020000154        0x6 obj/memory_manager.o
                0x0000000020000154                MemoryManager::m_heap_size
                0x0000000020000158                MemoryManager::m_init_flag
                0x0000000020000159                MemoryManager::m_lock
 .bss           0x000000002000015a        0x0 obj/profiler.o
 .bss           0x000000002000015a        0x0 obj/semaphore.o
 .bss           0x000000002000015a        0x0 obj/mutex.o
 .bss           0x000000002000015a        0x0 obj/critical_section.o
 .bss           0x000000002000015a        0x0 obj/_cxx.o
 .bss           0x000000002000015a        0x0 obj/timer.o
 .bss           0x000000002000015a        0x0 obj/system.o
 *fill*         0x000000002000015a        0x2 
 .bss           0x000000002000015c        0x4 obj/cortex_m.o
                0x000000002000015c                SystemBase::m_stack_alignment
 .bss           0x0000000020000160        0x0 obj/vectors.o
 .bss           0x0000000020000160        0x0 obj/exception_handlers.o
 .bss           0x0000000020000160        0x0 obj/initialize_hardware.o
 .bss           0x0000000020000160        0x0 obj/reset_hardware.o
 .bss           0x0000000020000160        0x0 obj/startup.o
 .bss           0x0000000020000160        0xc obj/_syscalls.o
                0x0000000020000164                __env
                0x0000000020000168                __dso_handle
 .bss           0x000000002000016c        0x0 obj/_exit.o
 .bss           0x000000002000016c        0x4 obj/_sbrk.o
 .bss           0x0000000020000170        0x0 obj/system_MDR32F9Qx.o
 .bss           0x0000000020000170        0x0 obj/MDR32F9Qx_adc.o
 .bss           0x0000000020000170        0x0 obj/MDR32F9Qx_port.o
 .bss           0x0000000020000170        0x0 obj/MDR32F9Qx_rst_clk.o
 .bss           0x0000000020000170        0x0 obj/MDR32F9Qx_timer.o
 .bss           0x0000000020000170        0x0 obj/MDR32F9Qx_uart.o
 .bss           0x0000000020000170        0x0 obj/MDR32F9Qx_ebc.o
 .bss           0x0000000020000170        0x0 obj/svc_handler.o
 .bss           0x0000000020000170        0x0 obj/hard_fault_handler.o
 .bss           0x0000000020000170        0x0 obj/mpu_fault_handler.o
 .bss           0x0000000020000170        0x0 obj/svc_exec_privileged.o
 .bss           0x0000000020000170        0x0 obj/pendsv_handler.o
 .bss           0x0000000020000170        0x0 /usr/bin/../lib/gcc/arm-none-eabi/7.3.1/../../../../arm-none-eabi/lib/thumb/v7-m/libstdc++_nano.a(eh_call.o)
 .bss           0x0000000020000170        0x0 /usr/bin/../lib/gcc/arm-none-eabi/7.3.1/../../../../arm-none-eabi/lib/thumb/v7-m/libstdc++_nano.a(eh_personality.o)
 .bss           0x0000000020000170        0x0 /usr/bin/../lib/gcc/arm-none-eabi/7.3.1/../../../../arm-none-eabi/lib/thumb/v7-m/libstdc++_nano.a(eh_arm.o)
 .bss           0x0000000020000170        0x0 /usr/bin/../lib/gcc/arm-none-eabi/7.3.1/../../../../arm-none-eabi/lib/thumb/v7-m/libstdc++_nano.a(eh_catch.o)
 .bss           0x0000000020000170        0x0 /usr/bin/../lib/gcc/arm-none-eabi/7.3.1/../../../../arm-none-eabi/lib/thumb/v7-m/libstdc++_nano.a(guard.o)
 .bss           0x0000000020000170        0x0 /usr/bin/../lib/gcc/arm-none-eabi/7.3.1/../../../../arm-none-eabi/lib/thumb/v7-m/libstdc++_nano.a(atexit_arm.o)
 .bss           0x0000000020000170        0x0 /usr/bin/../lib/gcc/arm-none-eabi/7.3.1/../../../../arm-none-eabi/lib/thumb/v7-m/libstdc++_nano.a(class_type_info.o)
 .bss           0x0000000020000170        0x0 /usr/bin/../lib/gcc/arm-none-eabi/7.3.1/../../../../arm-none-eabi/lib/thumb/v7-m/libstdc++_nano.a(eh_terminate.o)
 .bss           0x0000000020000170        0x0 /usr/bin/../lib/gcc/arm-none-eabi/7.3.1/../../../../arm-none-eabi/lib/thumb/v7-m/libstdc++_nano.a(eh_unex_handler.o)
 .bss           0x0000000020000170        0x0 /usr/bin/../lib/gcc/arm-none-eabi/7.3.1/../../../../arm-none-eabi/lib/thumb/v7-m/libstdc++_nano.a(eh_term_handler.o)
 .bss           0x0000000020000170        0x0 /usr/bin/../lib/gcc/arm-none-eabi/7.3.1/../../../../arm-none-eabi/lib/thumb/v7-m/libstdc++_nano.a(eh_globals.o)
 .bss._ZL10eh_globals
                0x0000000020000170        0xc /usr/bin/../lib/gcc/arm-none-eabi/7.3.1/../../../../arm-none-eabi/lib/thumb/v7-m/libstdc++_nano.a(eh_globals.o)
 .bss           0x000000002000017c        0x0 /usr/bin/../lib/gcc/arm-none-eabi/7.3.1/../../../../arm-none-eabi/lib/thumb/v7-m/libstdc++_nano.a(eh_aux_runtime.o)
 .bss           0x000000002000017c        0x0 /usr/bin/../lib/gcc/arm-none-eabi/7.3.1/../../../../arm-none-eabi/lib/thumb/v7-m/libstdc++_nano.a(si_class_type_info.o)
 .bss           0x000000002000017c        0x0 /usr/bin/../lib/gcc/arm-none-eabi/7.3.1/../../../../arm-none-eabi/lib/thumb/v7-m/libstdc++_nano.a(del_ops.o)
 .bss           0x000000002000017c        0x0 /usr/bin/../lib/gcc/arm-none-eabi/7.3.1/../../../../arm-none-eabi/lib/thumb/v7-m/libstdc++_nano.a(eh_exception.o)
 .bss           0x000000002000017c        0x0 /usr/bin/../lib/gcc/arm-none-eabi/7.3.1/../../../../arm-none-eabi/lib/thumb/v7-m/libstdc++_nano.a(tinfo.o)
 .bss           0x000000002000017c        0x0 /usr/bin/../lib/gcc/arm-none-eabi/7.3.1/thumb/v7-m/libgcc.a(_arm_addsubdf3.o)
 .bss           0x000000002000017c        0x0 /usr/bin/../lib/gcc/arm-none-eabi/7.3.1/thumb/v7-m/libgcc.a(_arm_muldivdf3.o)
 .bss           0x000000002000017c        0x0 /usr/bin/../lib/gcc/arm-none-eabi/7.3.1/thumb/v7-m/libgcc.a(_arm_fixdfsi.o)
 .bss           0x000000002000017c        0x0 /usr/bin/../lib/gcc/arm-none-eabi/7.3.1/thumb/v7-m/libgcc.a(unwind-arm.o)
 .bss           0x000000002000017c        0x0 /usr/bin/../lib/gcc/arm-none-eabi/7.3.1/thumb/v7-m/libgcc.a(libunwind.o)
 .bss           0x000000002000017c        0x0 /usr/bin/../lib/gcc/arm-none-eabi/7.3.1/thumb/v7-m/libgcc.a(pr-support.o)
 .bss           0x000000002000017c        0x0 /usr/bin/../lib/gcc/arm-none-eabi/7.3.1/../../../../arm-none-eabi/lib/thumb/v7-m/libg_nano.a(lib_a-cxa_atexit.o)
 .bss           0x000000002000017c        0x0 /usr/bin/../lib/gcc/arm-none-eabi/7.3.1/../../../../arm-none-eabi/lib/thumb/v7-m/libg_nano.a(lib_a-errno.o)
 .bss           0x000000002000017c        0x0 /usr/bin/../lib/gcc/arm-none-eabi/7.3.1/../../../../arm-none-eabi/lib/thumb/v7-m/libg_nano.a(lib_a-impure.o)
 .bss           0x000000002000017c        0x0 /usr/bin/../lib/gcc/arm-none-eabi/7.3.1/../../../../arm-none-eabi/lib/thumb/v7-m/libg_nano.a(lib_a-malloc.o)
 .bss           0x000000002000017c        0x0 /usr/bin/../lib/gcc/arm-none-eabi/7.3.1/../../../../arm-none-eabi/lib/thumb/v7-m/libg_nano.a(lib_a-memcmp.o)
 .bss           0x000000002000017c        0x0 /usr/bin/../lib/gcc/arm-none-eabi/7.3.1/../../../../arm-none-eabi/lib/thumb/v7-m/libg_nano.a(lib_a-memcpy-stub.o)
 .bss           0x000000002000017c        0x0 /usr/bin/../lib/gcc/arm-none-eabi/7.3.1/../../../../arm-none-eabi/lib/thumb/v7-m/libg_nano.a(lib_a-nano-freer.o)
 .bss           0x000000002000017c        0x0 /usr/bin/../lib/gcc/arm-none-eabi/7.3.1/../../../../arm-none-eabi/lib/thumb/v7-m/libg_nano.a(lib_a-nano-mallocr.o)
 .bss.__malloc_free_list
                0x000000002000017c        0x4 /usr/bin/../lib/gcc/arm-none-eabi/7.3.1/../../../../arm-none-eabi/lib/thumb/v7-m/libg_nano.a(lib_a-nano-mallocr.o)
                0x000000002000017c                __malloc_free_list
 .bss.__malloc_sbrk_start
                0x0000000020000180        0x4 /usr/bin/../lib/gcc/arm-none-eabi/7.3.1/../../../../arm-none-eabi/lib/thumb/v7-m/libg_nano.a(lib_a-nano-mallocr.o)
                0x0000000020000180                __malloc_sbrk_start
 .bss           0x0000000020000184        0x0 /usr/bin/../lib/gcc/arm-none-eabi/7.3.1/../../../../arm-none-eabi/lib/thumb/v7-m/libg_nano.a(lib_a-on_exit_args.o)
 .bss._on_exit_args_instance
                0x0000000020000184      0x108 /usr/bin/../lib/gcc/arm-none-eabi/7.3.1/../../../../arm-none-eabi/lib/thumb/v7-m/libg_nano.a(lib_a-on_exit_args.o)
 .bss           0x000000002000028c        0x0 /usr/bin/../lib/gcc/arm-none-eabi/7.3.1/../../../../arm-none-eabi/lib/thumb/v7-m/libg_nano.a(lib_a-rand.o)
 .bss           0x000000002000028c        0x0 /usr/bin/../lib/gcc/arm-none-eabi/7.3.1/../../../../arm-none-eabi/lib/thumb/v7-m/libg_nano.a(lib_a-sbrkr.o)
 .bss           0x000000002000028c        0x0 /usr/bin/../lib/gcc/arm-none-eabi/7.3.1/../../../../arm-none-eabi/lib/thumb/v7-m/libg_nano.a(lib_a-strcmp.o)
 .bss           0x000000002000028c        0x0 /usr/bin/../lib/gcc/arm-none-eabi/7.3.1/../../../../arm-none-eabi/lib/thumb/v7-m/libg_nano.a(lib_a-strcpy.o)
 .bss           0x000000002000028c        0x0 /usr/bin/../lib/gcc/arm-none-eabi/7.3.1/../../../../arm-none-eabi/lib/thumb/v7-m/libg_nano.a(lib_a-strlen.o)
 .bss           0x000000002000028c        0x0 /usr/bin/../lib/gcc/arm-none-eabi/7.3.1/../../../../arm-none-eabi/lib/thumb/v7-m/libg_nano.a(lib_a-vsnprintf.o)
 .bss           0x000000002000028c        0x0 /usr/bin/../lib/gcc/arm-none-eabi/7.3.1/../../../../arm-none-eabi/lib/thumb/v7-m/libg_nano.a(lib_a-mlock.o)
 .bss           0x000000002000028c        0x0 /usr/bin/../lib/gcc/arm-none-eabi/7.3.1/../../../../arm-none-eabi/lib/thumb/v7-m/libg_nano.a(lib_a-nano-svfprintf.o)
 .bss           0x000000002000028c        0x0 /usr/bin/../lib/gcc/arm-none-eabi/7.3.1/../../../../arm-none-eabi/lib/thumb/v7-m/libg_nano.a(lib_a-nano-vfprintf_i.o)
 .bss           0x000000002000028c        0x0 /usr/bin/../lib/gcc/arm-none-eabi/7.3.1/../../../../arm-none-eabi/lib/thumb/v7-m/libg_nano.a(lib_a-memchr-stub.o)
 .bss           0x000000002000028c        0x0 /usr/bin/../lib/gcc/arm-none-eabi/7.3.1/../../../../arm-none-eabi/lib/thumb/v7-m/libg_nano.a(lib_a-memmove.o)
 .bss           0x000000002000028c        0x0 /usr/bin/../lib/gcc/arm-none-eabi/7.3.1/../../../../arm-none-eabi/lib/thumb/v7-m/libg_nano.a(lib_a-nano-reallocr.o)
 .bss           0x000000002000028c        0x0 /usr/bin/../lib/gcc/arm-none-eabi/7.3.1/../../../../arm-none-eabi/lib/thumb/v7-m/libg_nano.a(lib_a-nano-msizer.o)
 *(COMMON)
 COMMON         0x000000002000028c        0x4 obj/_syscalls.o
                0x000000002000028c                errno
 *(.bss_end .bss_end.*)
                0x0000000020000290                . = ALIGN (0x4)
                0x0000000020000290                __bss_end__ = .

.noinit         0x0000000020000290        0x0 load address 0x0000000008007eb0
                0x0000000020000290                _noinit = .
 *(.noinit .noinit.*)
                0x0000000020000290                . = ALIGN (0x4)
                0x0000000020000290                _end_noinit = .
                [!provide]                        PROVIDE (end = _end_noinit)
                [!provide]                        PROVIDE (_end = _end_noinit)
                [!provide]                        PROVIDE (__end = _end_noinit)
                [!provide]                        PROVIDE (__end__ = _end_noinit)

._check_stack   0x0000000020000290      0x100 load address 0x0000000008007eb0
                0x0000000020000390                . = (. + _Minimum_Stack_Size)
 *fill*         0x0000000020000290      0x100 

.stab
 *(.stab)

.stabstr
 *(.stabstr)

.stab.excl
 *(.stab.excl)

.stab.exclstr
 *(.stab.exclstr)

.stab.index
 *(.stab.index)

.stab.indexstr
 *(.stab.indexstr)

.comment        0x0000000000000000       0x7f
 *(.comment)
 .comment       0x0000000000000000       0x7f obj/blink_app.o
                                         0x80 (size before relaxing)
 .comment       0x000000000000007f       0x80 obj/main.o
 .comment       0x000000000000007f       0x80 obj/common.o
 .comment       0x000000000000007f       0x80 obj/scheduler.o
 .comment       0x000000000000007f       0x80 obj/task.o
 .comment       0x000000000000007f       0x80 obj/version.o
 .comment       0x000000000000007f       0x80 obj/application.o
 .comment       0x000000000000007f       0x80 obj/event.o
 .comment       0x000000000000007f       0x80 obj/buffer.o
 .comment       0x000000000000007f       0x80 obj/memory_management_operators.o
 .comment       0x000000000000007f       0x80 obj/memory_manager.o
 .comment       0x000000000000007f       0x80 obj/profiler.o
 .comment       0x000000000000007f       0x80 obj/semaphore.o
 .comment       0x000000000000007f       0x80 obj/mutex.o
 .comment       0x000000000000007f       0x80 obj/critical_section.o
 .comment       0x000000000000007f       0x80 obj/_cxx.o
 .comment       0x000000000000007f       0x80 obj/timer.o
 .comment       0x000000000000007f       0x80 obj/system.o
 .comment       0x000000000000007f       0x80 obj/cortex_m.o
 .comment       0x000000000000007f       0x80 obj/vectors.o
 .comment       0x000000000000007f       0x80 obj/exception_handlers.o
 .comment       0x000000000000007f       0x80 obj/initialize_hardware.o
 .comment       0x000000000000007f       0x80 obj/reset_hardware.o
 .comment       0x000000000000007f       0x80 obj/startup.o
 .comment       0x000000000000007f       0x80 obj/_syscalls.o
 .comment       0x000000000000007f       0x80 obj/_exit.o
 .comment       0x000000000000007f       0x80 obj/_sbrk.o
 .comment       0x000000000000007f       0x80 obj/system_MDR32F9Qx.o
 .comment       0x000000000000007f       0x80 obj/MDR32F9Qx_adc.o
 .comment       0x000000000000007f       0x80 obj/MDR32F9Qx_port.o
 .comment       0x000000000000007f       0x80 obj/MDR32F9Qx_rst_clk.o
 .comment       0x000000000000007f       0x80 obj/MDR32F9Qx_timer.o
 .comment       0x000000000000007f       0x80 obj/MDR32F9Qx_uart.o
 .comment       0x000000000000007f       0x80 obj/MDR32F9Qx_ebc.o

.ARM.attributes
                0x0000000000000000       0x31
 .ARM.attributes
                0x0000000000000000       0x33 obj/blink_app.o
 .ARM.attributes
                0x0000000000000033       0x33 obj/main.o
 .ARM.attributes
                0x0000000000000066       0x33 obj/common.o
 .ARM.attributes
                0x0000000000000099       0x33 obj/scheduler.o
 .ARM.attributes
                0x00000000000000cc       0x33 obj/task.o
 .ARM.attributes
                0x00000000000000ff       0x33 obj/version.o
 .ARM.attributes
                0x0000000000000132       0x33 obj/application.o
 .ARM.attributes
                0x0000000000000165       0x33 obj/event.o
 .ARM.attributes
                0x0000000000000198       0x33 obj/buffer.o
 .ARM.attributes
                0x00000000000001cb       0x33 obj/memory_management_operators.o
 .ARM.attributes
                0x00000000000001fe       0x33 obj/memory_manager.o
 .ARM.attributes
                0x0000000000000231       0x33 obj/profiler.o
 .ARM.attributes
                0x0000000000000264       0x33 obj/semaphore.o
 .ARM.attributes
                0x0000000000000297       0x33 obj/mutex.o
 .ARM.attributes
                0x00000000000002ca       0x33 obj/critical_section.o
 .ARM.attributes
                0x00000000000002fd       0x33 obj/_cxx.o
 .ARM.attributes
                0x0000000000000330       0x33 obj/timer.o
 .ARM.attributes
                0x0000000000000363       0x33 obj/system.o
 .ARM.attributes
                0x0000000000000396       0x33 obj/cortex_m.o
 .ARM.attributes
                0x00000000000003c9       0x33 obj/vectors.o
 .ARM.attributes
                0x00000000000003fc       0x33 obj/exception_handlers.o
 .ARM.attributes
                0x000000000000042f       0x33 obj/initialize_hardware.o
 .ARM.attributes
                0x0000000000000462       0x33 obj/reset_hardware.o
 .ARM.attributes
                0x0000000000000495       0x33 obj/startup.o
 .ARM.attributes
                0x00000000000004c8       0x33 obj/_syscalls.o
 .ARM.attributes
                0x00000000000004fb       0x33 obj/_exit.o
 .ARM.attributes
                0x000000000000052e       0x33 obj/_sbrk.o
 .ARM.attributes
                0x0000000000000561       0x33 obj/system_MDR32F9Qx.o
 .ARM.attributes
                0x0000000000000594       0x33 obj/MDR32F9Qx_adc.o
 .ARM.attributes
                0x00000000000005c7       0x33 obj/MDR32F9Qx_port.o
 .ARM.attributes
                0x00000000000005fa       0x33 obj/MDR32F9Qx_rst_clk.o
 .ARM.attributes
                0x000000000000062d       0x33 obj/MDR32F9Qx_timer.o
 .ARM.attributes
                0x0000000000000660       0x33 obj/MDR32F9Qx_uart.o
 .ARM.attributes
                0x0000000000000693       0x33 obj/MDR32F9Qx_ebc.o
 .ARM.attributes
                0x00000000000006c6       0x21 obj/svc_handler.o
 .ARM.attributes
                0x00000000000006e7       0x21 obj/hard_fault_handler.o
 .ARM.attributes
                0x0000000000000708       0x21 obj/mpu_fault_handler.o
 .ARM.attributes
                0x0000000000000729       0x21 obj/svc_exec_privileged.o
 .ARM.attributes
                0x000000000000074a       0x21 obj/pendsv_handler.o
 .ARM.attributes
                0x000000000000076b       0x2d /usr/bin/../lib/gcc/arm-none-eabi/7.3.1/../../../../arm-none-eabi/lib/thumb/v7-m/libstdc++_nano.a(eh_call.o)
 .ARM.attributes
                0x0000000000000798       0x2d /usr/bin/../lib/gcc/arm-none-eabi/7.3.1/../../../../arm-none-eabi/lib/thumb/v7-m/libstdc++_nano.a(eh_personality.o)
 .ARM.attributes
                0x00000000000007c5       0x2d /usr/bin/../lib/gcc/arm-none-eabi/7.3.1/../../../../arm-none-eabi/lib/thumb/v7-m/libstdc++_nano.a(eh_arm.o)
 .ARM.attributes
                0x00000000000007f2       0x2d /usr/bin/../lib/gcc/arm-none-eabi/7.3.1/../../../../arm-none-eabi/lib/thumb/v7-m/libstdc++_nano.a(eh_catch.o)
 .ARM.attributes
                0x000000000000081f       0x2d /usr/bin/../lib/gcc/arm-none-eabi/7.3.1/../../../../arm-none-eabi/lib/thumb/v7-m/libstdc++_nano.a(guard.o)
 .ARM.attributes
                0x000000000000084c       0x2d /usr/bin/../lib/gcc/arm-none-eabi/7.3.1/../../../../arm-none-eabi/lib/thumb/v7-m/libstdc++_nano.a(atexit_arm.o)
 .ARM.attributes
                0x0000000000000879       0x2d /usr/bin/../lib/gcc/arm-none-eabi/7.3.1/../../../../arm-none-eabi/lib/thumb/v7-m/libstdc++_nano.a(class_type_info.o)
 .ARM.attributes
                0x00000000000008a6       0x2d /usr/bin/../lib/gcc/arm-none-eabi/7.3.1/../../../../arm-none-eabi/lib/thumb/v7-m/libstdc++_nano.a(eh_terminate.o)
 .ARM.attributes
                0x00000000000008d3       0x2d /usr/bin/../lib/gcc/arm-none-eabi/7.3.1/../../../../arm-none-eabi/lib/thumb/v7-m/libstdc++_nano.a(eh_unex_handler.o)
 .ARM.attributes
                0x0000000000000900       0x2d /usr/bin/../lib/gcc/arm-none-eabi/7.3.1/../../../../arm-none-eabi/lib/thumb/v7-m/libstdc++_nano.a(eh_term_handler.o)
 .ARM.attributes
                0x000000000000092d       0x2d /usr/bin/../lib/gcc/arm-none-eabi/7.3.1/../../../../arm-none-eabi/lib/thumb/v7-m/libstdc++_nano.a(eh_globals.o)
 .ARM.attributes
                0x000000000000095a       0x2d /usr/bin/../lib/gcc/arm-none-eabi/7.3.1/../../../../arm-none-eabi/lib/thumb/v7-m/libstdc++_nano.a(eh_aux_runtime.o)
 .ARM.attributes
                0x0000000000000987       0x2d /usr/bin/../lib/gcc/arm-none-eabi/7.3.1/../../../../arm-none-eabi/lib/thumb/v7-m/libstdc++_nano.a(si_class_type_info.o)
 .ARM.attributes
                0x00000000000009b4       0x2d /usr/bin/../lib/gcc/arm-none-eabi/7.3.1/../../../../arm-none-eabi/lib/thumb/v7-m/libstdc++_nano.a(del_ops.o)
 .ARM.attributes
                0x00000000000009e1       0x2d /usr/bin/../lib/gcc/arm-none-eabi/7.3.1/../../../../arm-none-eabi/lib/thumb/v7-m/libstdc++_nano.a(eh_exception.o)
 .ARM.attributes
                0x0000000000000a0e       0x2d /usr/bin/../lib/gcc/arm-none-eabi/7.3.1/../../../../arm-none-eabi/lib/thumb/v7-m/libstdc++_nano.a(tinfo.o)
 .ARM.attributes
                0x0000000000000a3b       0x1d /usr/bin/../lib/gcc/arm-none-eabi/7.3.1/thumb/v7-m/libgcc.a(_arm_addsubdf3.o)
 .ARM.attributes
                0x0000000000000a58       0x1d /usr/bin/../lib/gcc/arm-none-eabi/7.3.1/thumb/v7-m/libgcc.a(_arm_muldivdf3.o)
 .ARM.attributes
                0x0000000000000a75       0x1d /usr/bin/../lib/gcc/arm-none-eabi/7.3.1/thumb/v7-m/libgcc.a(_arm_fixdfsi.o)
 .ARM.attributes
                0x0000000000000a92       0x2d /usr/bin/../lib/gcc/arm-none-eabi/7.3.1/thumb/v7-m/libgcc.a(unwind-arm.o)
 .ARM.attributes
                0x0000000000000abf       0x1d /usr/bin/../lib/gcc/arm-none-eabi/7.3.1/thumb/v7-m/libgcc.a(libunwind.o)
 .ARM.attributes
                0x0000000000000adc       0x2d /usr/bin/../lib/gcc/arm-none-eabi/7.3.1/thumb/v7-m/libgcc.a(pr-support.o)
 .ARM.attributes
                0x0000000000000b09       0x2d /usr/bin/../lib/gcc/arm-none-eabi/7.3.1/../../../../arm-none-eabi/lib/thumb/v7-m/libg_nano.a(lib_a-cxa_atexit.o)
 .ARM.attributes
                0x0000000000000b36       0x2d /usr/bin/../lib/gcc/arm-none-eabi/7.3.1/../../../../arm-none-eabi/lib/thumb/v7-m/libg_nano.a(lib_a-errno.o)
 .ARM.attributes
                0x0000000000000b63       0x2d /usr/bin/../lib/gcc/arm-none-eabi/7.3.1/../../../../arm-none-eabi/lib/thumb/v7-m/libg_nano.a(lib_a-impure.o)
 .ARM.attributes
                0x0000000000000b90       0x2d /usr/bin/../lib/gcc/arm-none-eabi/7.3.1/../../../../arm-none-eabi/lib/thumb/v7-m/libg_nano.a(lib_a-malloc.o)
 .ARM.attributes
                0x0000000000000bbd       0x2d /usr/bin/../lib/gcc/arm-none-eabi/7.3.1/../../../../arm-none-eabi/lib/thumb/v7-m/libg_nano.a(lib_a-memcmp.o)
 .ARM.attributes
                0x0000000000000bea       0x2d /usr/bin/../lib/gcc/arm-none-eabi/7.3.1/../../../../arm-none-eabi/lib/thumb/v7-m/libg_nano.a(lib_a-memcpy-stub.o)
 .ARM.attributes
                0x0000000000000c17       0x2d /usr/bin/../lib/gcc/arm-none-eabi/7.3.1/../../../../arm-none-eabi/lib/thumb/v7-m/libg_nano.a(lib_a-nano-freer.o)
 .ARM.attributes
                0x0000000000000c44       0x2d /usr/bin/../lib/gcc/arm-none-eabi/7.3.1/../../../../arm-none-eabi/lib/thumb/v7-m/libg_nano.a(lib_a-nano-mallocr.o)
 .ARM.attributes
                0x0000000000000c71       0x2d /usr/bin/../lib/gcc/arm-none-eabi/7.3.1/../../../../arm-none-eabi/lib/thumb/v7-m/libg_nano.a(lib_a-on_exit_args.o)
 .ARM.attributes
                0x0000000000000c9e       0x2d /usr/bin/../lib/gcc/arm-none-eabi/7.3.1/../../../../arm-none-eabi/lib/thumb/v7-m/libg_nano.a(lib_a-rand.o)
 .ARM.attributes
                0x0000000000000ccb       0x2d /usr/bin/../lib/gcc/arm-none-eabi/7.3.1/../../../../arm-none-eabi/lib/thumb/v7-m/libg_nano.a(lib_a-sbrkr.o)
 .ARM.attributes
                0x0000000000000cf8       0x1b /usr/bin/../lib/gcc/arm-none-eabi/7.3.1/../../../../arm-none-eabi/lib/thumb/v7-m/libg_nano.a(lib_a-strcmp.o)
 .ARM.attributes
                0x0000000000000d13       0x2d /usr/bin/../lib/gcc/arm-none-eabi/7.3.1/../../../../arm-none-eabi/lib/thumb/v7-m/libg_nano.a(lib_a-strcpy.o)
 .ARM.attributes
                0x0000000000000d40       0x17 /usr/bin/../lib/gcc/arm-none-eabi/7.3.1/../../../../arm-none-eabi/lib/thumb/v7-m/libg_nano.a(lib_a-strlen.o)
 .ARM.attributes
                0x0000000000000d57       0x2d /usr/bin/../lib/gcc/arm-none-eabi/7.3.1/../../../../arm-none-eabi/lib/thumb/v7-m/libg_nano.a(lib_a-vsnprintf.o)
 .ARM.attributes
                0x0000000000000d84       0x2d /usr/bin/../lib/gcc/arm-none-eabi/7.3.1/../../../../arm-none-eabi/lib/thumb/v7-m/libg_nano.a(lib_a-mlock.o)
 .ARM.attributes
                0x0000000000000db1       0x2d /usr/bin/../lib/gcc/arm-none-eabi/7.3.1/../../../../arm-none-eabi/lib/thumb/v7-m/libg_nano.a(lib_a-nano-svfprintf.o)
 .ARM.attributes
                0x0000000000000dde       0x2d /usr/bin/../lib/gcc/arm-none-eabi/7.3.1/../../../../arm-none-eabi/lib/thumb/v7-m/libg_nano.a(lib_a-nano-vfprintf_i.o)
 .ARM.attributes
                0x0000000000000e0b       0x2d /usr/bin/../lib/gcc/arm-none-eabi/7.3.1/../../../../arm-none-eabi/lib/thumb/v7-m/libg_nano.a(lib_a-memchr-stub.o)
 .ARM.attributes
                0x0000000000000e38       0x2d /usr/bin/../lib/gcc/arm-none-eabi/7.3.1/../../../../arm-none-eabi/lib/thumb/v7-m/libg_nano.a(lib_a-memmove.o)
 .ARM.attributes
                0x0000000000000e65       0x2d /usr/bin/../lib/gcc/arm-none-eabi/7.3.1/../../../../arm-none-eabi/lib/thumb/v7-m/libg_nano.a(lib_a-nano-reallocr.o)
 .ARM.attributes
                0x0000000000000e92       0x2d /usr/bin/../lib/gcc/arm-none-eabi/7.3.1/../../../../arm-none-eabi/lib/thumb/v7-m/libg_nano.a(lib_a-nano-msizer.o)

.debug
 *(.debug)

.line
 *(.line)

.debug_srcinfo
 *(.debug_srcinfo)

.debug_sfnames
 *(.debug_sfnames)

.debug_aranges  0x0000000000000000      0x588
 *(.debug_aranges)
 .debug_aranges
                0x0000000000000000       0x48 obj/blink_app.o
 .debug_aranges
                0x0000000000000048       0x20 obj/main.o
 .debug_aranges
                0x0000000000000068       0x20 obj/common.o
 .debug_aranges
                0x0000000000000088       0x38 obj/scheduler.o
 .debug_aranges
                0x00000000000000c0       0x28 obj/task.o
 .debug_aranges
                0x00000000000000e8       0x20 obj/version.o
 .debug_aranges
                0x0000000000000108       0x28 obj/application.o
 .debug_aranges
                0x0000000000000130       0x20 obj/event.o
 .debug_aranges
                0x0000000000000150       0x20 obj/buffer.o
 .debug_aranges
                0x0000000000000170       0x20 obj/memory_management_operators.o
 .debug_aranges
                0x0000000000000190       0x28 obj/memory_manager.o
 .debug_aranges
                0x00000000000001b8       0x18 obj/profiler.o
 .debug_aranges
                0x00000000000001d0       0x20 obj/semaphore.o
 .debug_aranges
                0x00000000000001f0       0x20 obj/mutex.o
 .debug_aranges
                0x0000000000000210       0x18 obj/critical_section.o
 .debug_aranges
                0x0000000000000228       0x20 obj/_cxx.o
 .debug_aranges
                0x0000000000000248       0x18 obj/timer.o
 .debug_aranges
                0x0000000000000260       0x20 obj/system.o
 .debug_aranges
                0x0000000000000280       0x20 obj/cortex_m.o
 .debug_aranges
                0x00000000000002a0       0x20 obj/vectors.o
 .debug_aranges
                0x00000000000002c0       0x80 obj/exception_handlers.o
 .debug_aranges
                0x0000000000000340       0x20 obj/initialize_hardware.o
 .debug_aranges
                0x0000000000000360       0x20 obj/reset_hardware.o
 .debug_aranges
                0x0000000000000380       0x28 obj/startup.o
 .debug_aranges
                0x00000000000003a8       0x20 obj/_syscalls.o
 .debug_aranges
                0x00000000000003c8       0x20 obj/_exit.o
 .debug_aranges
                0x00000000000003e8       0x20 obj/_sbrk.o
 .debug_aranges
                0x0000000000000408       0x20 obj/system_MDR32F9Qx.o
 .debug_aranges
                0x0000000000000428       0x20 obj/MDR32F9Qx_adc.o
 .debug_aranges
                0x0000000000000448       0x20 obj/MDR32F9Qx_port.o
 .debug_aranges
                0x0000000000000468       0x20 obj/MDR32F9Qx_rst_clk.o
 .debug_aranges
                0x0000000000000488       0x20 obj/MDR32F9Qx_timer.o
 .debug_aranges
                0x00000000000004a8       0x20 obj/MDR32F9Qx_uart.o
 .debug_aranges
                0x00000000000004c8       0x20 obj/MDR32F9Qx_ebc.o
 .debug_aranges
                0x00000000000004e8       0x20 obj/svc_handler.o
 .debug_aranges
                0x0000000000000508       0x20 obj/hard_fault_handler.o
 .debug_aranges
                0x0000000000000528       0x20 obj/mpu_fault_handler.o
 .debug_aranges
                0x0000000000000548       0x20 obj/svc_exec_privileged.o
 .debug_aranges
                0x0000000000000568       0x20 obj/pendsv_handler.o

.debug_pubnames
 *(.debug_pubnames)

.debug_info     0x0000000000000000    0x2aad3
 *(.debug_info .gnu.linkonce.wi.*)
 .debug_info    0x0000000000000000     0x1ba7 obj/blink_app.o
 .debug_info    0x0000000000001ba7      0xb67 obj/main.o
 .debug_info    0x000000000000270e     0x3291 obj/common.o
 .debug_info    0x000000000000599f     0x5465 obj/scheduler.o
 .debug_info    0x000000000000ae04     0x467c obj/task.o
 .debug_info    0x000000000000f480       0x66 obj/version.o
 .debug_info    0x000000000000f4e6     0x201f obj/application.o
 .debug_info    0x0000000000011505     0x2251 obj/event.o
 .debug_info    0x0000000000013756     0x1a5b obj/buffer.o
 .debug_info    0x00000000000151b1     0x10ba obj/memory_management_operators.o
 .debug_info    0x000000000001626b     0x283e obj/memory_manager.o
 .debug_info    0x0000000000018aa9       0x21 obj/profiler.o
 .debug_info    0x0000000000018aca     0x2311 obj/semaphore.o
 .debug_info    0x000000000001addb     0x2d11 obj/mutex.o
 .debug_info    0x000000000001daec      0x96e obj/critical_section.o
 .debug_info    0x000000000001e45a      0xdef obj/_cxx.o
 .debug_info    0x000000000001f249       0x21 obj/timer.o
 .debug_info    0x000000000001f26a      0xf62 obj/system.o
 .debug_info    0x00000000000201cc     0x2c82 obj/cortex_m.o
 .debug_info    0x0000000000022e4e       0xc9 obj/vectors.o
 .debug_info    0x0000000000022f17      0xa8c obj/exception_handlers.o
 .debug_info    0x00000000000239a3      0x2d6 obj/initialize_hardware.o
 .debug_info    0x0000000000023c79      0x2e8 obj/reset_hardware.o
 .debug_info    0x0000000000023f61      0x3db obj/startup.o
 .debug_info    0x000000000002433c     0x11bc obj/_syscalls.o
 .debug_info    0x00000000000254f8      0x902 obj/_exit.o
 .debug_info    0x0000000000025dfa      0x942 obj/_sbrk.o
 .debug_info    0x000000000002673c      0x1e9 obj/system_MDR32F9Qx.o
 .debug_info    0x0000000000026925      0xb67 obj/MDR32F9Qx_adc.o
 .debug_info    0x000000000002748c      0x610 obj/MDR32F9Qx_port.o
 .debug_info    0x0000000000027a9c      0xc21 obj/MDR32F9Qx_rst_clk.o
 .debug_info    0x00000000000286bd     0x17e8 obj/MDR32F9Qx_timer.o
 .debug_info    0x0000000000029ea5      0x832 obj/MDR32F9Qx_uart.o
 .debug_info    0x000000000002a6d7      0x33e obj/MDR32F9Qx_ebc.o
 .debug_info    0x000000000002aa15       0x26 obj/svc_handler.o
 .debug_info    0x000000000002aa3b       0x26 obj/hard_fault_handler.o
 .debug_info    0x000000000002aa61       0x26 obj/mpu_fault_handler.o
 .debug_info    0x000000000002aa87       0x26 obj/svc_exec_privileged.o
 .debug_info    0x000000000002aaad       0x26 obj/pendsv_handler.o

.debug_abbrev   0x0000000000000000     0x7cf2
 *(.debug_abbrev)
 .debug_abbrev  0x0000000000000000      0x5fa obj/blink_app.o
 .debug_abbrev  0x00000000000005fa      0x2ea obj/main.o
 .debug_abbrev  0x00000000000008e4      0x9a9 obj/common.o
 .debug_abbrev  0x000000000000128d      0xa71 obj/scheduler.o
 .debug_abbrev  0x0000000000001cfe      0x9ad obj/task.o
 .debug_abbrev  0x00000000000026ab       0x62 obj/version.o
 .debug_abbrev  0x000000000000270d      0x6fc obj/application.o
 .debug_abbrev  0x0000000000002e09      0x6d6 obj/event.o
 .debug_abbrev  0x00000000000034df      0x40a obj/buffer.o
 .debug_abbrev  0x00000000000038e9      0x466 obj/memory_management_operators.o
 .debug_abbrev  0x0000000000003d4f      0x74f obj/memory_manager.o
 .debug_abbrev  0x000000000000449e       0x13 obj/profiler.o
 .debug_abbrev  0x00000000000044b1      0x6e5 obj/semaphore.o
 .debug_abbrev  0x0000000000004b96      0x879 obj/mutex.o
 .debug_abbrev  0x000000000000540f      0x1d5 obj/critical_section.o
 .debug_abbrev  0x00000000000055e4      0x2b8 obj/_cxx.o
 .debug_abbrev  0x000000000000589c       0x13 obj/timer.o
 .debug_abbrev  0x00000000000058af      0x374 obj/system.o
 .debug_abbrev  0x0000000000005c23      0x830 obj/cortex_m.o
 .debug_abbrev  0x0000000000006453       0x9d obj/vectors.o
 .debug_abbrev  0x00000000000064f0      0x1e9 obj/exception_handlers.o
 .debug_abbrev  0x00000000000066d9       0xea obj/initialize_hardware.o
 .debug_abbrev  0x00000000000067c3      0x10e obj/reset_hardware.o
 .debug_abbrev  0x00000000000068d1      0x190 obj/startup.o
 .debug_abbrev  0x0000000000006a61      0x28c obj/_syscalls.o
 .debug_abbrev  0x0000000000006ced      0x1f1 obj/_exit.o
 .debug_abbrev  0x0000000000006ede      0x1fc obj/_sbrk.o
 .debug_abbrev  0x00000000000070da       0xe5 obj/system_MDR32F9Qx.o
 .debug_abbrev  0x00000000000071bf      0x207 obj/MDR32F9Qx_adc.o
 .debug_abbrev  0x00000000000073c6      0x1c1 obj/MDR32F9Qx_port.o
 .debug_abbrev  0x0000000000007587      0x1b6 obj/MDR32F9Qx_rst_clk.o
 .debug_abbrev  0x000000000000773d      0x1ca obj/MDR32F9Qx_timer.o
 .debug_abbrev  0x0000000000007907      0x201 obj/MDR32F9Qx_uart.o
 .debug_abbrev  0x0000000000007b08      0x186 obj/MDR32F9Qx_ebc.o
 .debug_abbrev  0x0000000000007c8e       0x14 obj/svc_handler.o
 .debug_abbrev  0x0000000000007ca2       0x14 obj/hard_fault_handler.o
 .debug_abbrev  0x0000000000007cb6       0x14 obj/mpu_fault_handler.o
 .debug_abbrev  0x0000000000007cca       0x14 obj/svc_exec_privileged.o
 .debug_abbrev  0x0000000000007cde       0x14 obj/pendsv_handler.o

.debug_line     0x0000000000000000     0x8e78
 *(.debug_line)
 .debug_line    0x0000000000000000      0x554 obj/blink_app.o
 .debug_line    0x0000000000000554      0x43b obj/main.o
 .debug_line    0x000000000000098f      0x7b4 obj/common.o
 .debug_line    0x0000000000001143      0xd4c obj/scheduler.o
 .debug_line    0x0000000000001e8f      0x706 obj/task.o
 .debug_line    0x0000000000002595       0x53 obj/version.o
 .debug_line    0x00000000000025e8      0x619 obj/application.o
 .debug_line    0x0000000000002c01      0x57f obj/event.o
 .debug_line    0x0000000000003180      0x4a4 obj/buffer.o
 .debug_line    0x0000000000003624      0x639 obj/memory_management_operators.o
 .debug_line    0x0000000000003c5d      0x70c obj/memory_manager.o
 .debug_line    0x0000000000004369       0xc0 obj/profiler.o
 .debug_line    0x0000000000004429      0x5ac obj/semaphore.o
 .debug_line    0x00000000000049d5      0x6a7 obj/mutex.o
 .debug_line    0x000000000000507c      0x42b obj/critical_section.o
 .debug_line    0x00000000000054a7      0x34d obj/_cxx.o
 .debug_line    0x00000000000057f4       0x9b obj/timer.o
 .debug_line    0x000000000000588f      0x3cb obj/system.o
 .debug_line    0x0000000000005c5a      0x632 obj/cortex_m.o
 .debug_line    0x000000000000628c      0x174 obj/vectors.o
 .debug_line    0x0000000000006400      0x2d7 obj/exception_handlers.o
 .debug_line    0x00000000000066d7      0x1fa obj/initialize_hardware.o
 .debug_line    0x00000000000068d1      0x201 obj/reset_hardware.o
 .debug_line    0x0000000000006ad2      0x2d6 obj/startup.o
 .debug_line    0x0000000000006da8      0x36c obj/_syscalls.o
 .debug_line    0x0000000000007114      0x1c8 obj/_exit.o
 .debug_line    0x00000000000072dc      0x260 obj/_sbrk.o
 .debug_line    0x000000000000753c      0x224 obj/system_MDR32F9Qx.o
 .debug_line    0x0000000000007760      0x3b1 obj/MDR32F9Qx_adc.o
 .debug_line    0x0000000000007b11      0x2f8 obj/MDR32F9Qx_port.o
 .debug_line    0x0000000000007e09      0x431 obj/MDR32F9Qx_rst_clk.o
 .debug_line    0x000000000000823a      0x477 obj/MDR32F9Qx_timer.o
 .debug_line    0x00000000000086b1      0x2de obj/MDR32F9Qx_uart.o
 .debug_line    0x000000000000898f      0x25d obj/MDR32F9Qx_ebc.o
 .debug_line    0x0000000000008bec       0x90 obj/svc_handler.o
 .debug_line    0x0000000000008c7c       0x7c obj/hard_fault_handler.o
 .debug_line    0x0000000000008cf8       0x8b obj/mpu_fault_handler.o
 .debug_line    0x0000000000008d83       0x7b obj/svc_exec_privileged.o
 .debug_line    0x0000000000008dfe       0x7a obj/pendsv_handler.o

.debug_frame    0x0000000000000000     0x34b4
 *(.debug_frame)
 .debug_frame   0x0000000000000000       0xe0 obj/blink_app.o
 .debug_frame   0x00000000000000e0       0x2c obj/main.o
 .debug_frame   0x000000000000010c      0x204 obj/common.o
 .debug_frame   0x0000000000000310      0x47c obj/scheduler.o
 .debug_frame   0x000000000000078c      0x2d0 obj/task.o
 .debug_frame   0x0000000000000a5c       0x20 obj/version.o
 .debug_frame   0x0000000000000a7c       0xe8 obj/application.o
 .debug_frame   0x0000000000000b64       0xb4 obj/event.o
 .debug_frame   0x0000000000000c18      0x10c obj/buffer.o
 .debug_frame   0x0000000000000d24       0xd0 obj/memory_management_operators.o
 .debug_frame   0x0000000000000df4       0xa0 obj/memory_manager.o
 .debug_frame   0x0000000000000e94       0xb4 obj/semaphore.o
 .debug_frame   0x0000000000000f48      0x138 obj/mutex.o
 .debug_frame   0x0000000000001080       0x40 obj/_cxx.o
 .debug_frame   0x00000000000010c0       0x30 obj/system.o
 .debug_frame   0x00000000000010f0      0x254 obj/cortex_m.o
 .debug_frame   0x0000000000001344       0x20 obj/vectors.o
 .debug_frame   0x0000000000001364       0xe0 obj/exception_handlers.o
 .debug_frame   0x0000000000001444       0x40 obj/initialize_hardware.o
 .debug_frame   0x0000000000001484       0x20 obj/reset_hardware.o
 .debug_frame   0x00000000000014a4       0x7c obj/startup.o
 .debug_frame   0x0000000000001520      0x230 obj/_syscalls.o
 .debug_frame   0x0000000000001750       0x40 obj/_exit.o
 .debug_frame   0x0000000000001790       0x28 obj/_sbrk.o
 .debug_frame   0x00000000000017b8       0x38 obj/system_MDR32F9Qx.o
 .debug_frame   0x00000000000017f0      0x32c obj/MDR32F9Qx_adc.o
 .debug_frame   0x0000000000001b1c       0xcc obj/MDR32F9Qx_port.o
 .debug_frame   0x0000000000001be8      0x2b8 obj/MDR32F9Qx_rst_clk.o
 .debug_frame   0x0000000000001ea0      0x3e4 obj/MDR32F9Qx_timer.o
 .debug_frame   0x0000000000002284      0x148 obj/MDR32F9Qx_uart.o
 .debug_frame   0x00000000000023cc       0x70 obj/MDR32F9Qx_ebc.o
 .debug_frame   0x000000000000243c       0x54 /usr/bin/../lib/gcc/arm-none-eabi/7.3.1/../../../../arm-none-eabi/lib/thumb/v7-m/libstdc++_nano.a(eh_call.o)
 .debug_frame   0x0000000000002490      0x130 /usr/bin/../lib/gcc/arm-none-eabi/7.3.1/../../../../arm-none-eabi/lib/thumb/v7-m/libstdc++_nano.a(eh_personality.o)
 .debug_frame   0x00000000000025c0       0x78 /usr/bin/../lib/gcc/arm-none-eabi/7.3.1/../../../../arm-none-eabi/lib/thumb/v7-m/libstdc++_nano.a(eh_arm.o)
 .debug_frame   0x0000000000002638       0x8c /usr/bin/../lib/gcc/arm-none-eabi/7.3.1/../../../../arm-none-eabi/lib/thumb/v7-m/libstdc++_nano.a(eh_catch.o)
 .debug_frame   0x00000000000026c4       0x40 /usr/bin/../lib/gcc/arm-none-eabi/7.3.1/../../../../arm-none-eabi/lib/thumb/v7-m/libstdc++_nano.a(guard.o)
 .debug_frame   0x0000000000002704       0x20 /usr/bin/../lib/gcc/arm-none-eabi/7.3.1/../../../../arm-none-eabi/lib/thumb/v7-m/libstdc++_nano.a(atexit_arm.o)
 .debug_frame   0x0000000000002724       0xd8 /usr/bin/../lib/gcc/arm-none-eabi/7.3.1/../../../../arm-none-eabi/lib/thumb/v7-m/libstdc++_nano.a(class_type_info.o)
 .debug_frame   0x00000000000027fc       0xb0 /usr/bin/../lib/gcc/arm-none-eabi/7.3.1/../../../../arm-none-eabi/lib/thumb/v7-m/libstdc++_nano.a(eh_terminate.o)
 .debug_frame   0x00000000000028ac       0x30 /usr/bin/../lib/gcc/arm-none-eabi/7.3.1/../../../../arm-none-eabi/lib/thumb/v7-m/libstdc++_nano.a(eh_globals.o)
 .debug_frame   0x00000000000028dc       0x58 /usr/bin/../lib/gcc/arm-none-eabi/7.3.1/../../../../arm-none-eabi/lib/thumb/v7-m/libstdc++_nano.a(eh_aux_runtime.o)
 .debug_frame   0x0000000000002934       0xd4 /usr/bin/../lib/gcc/arm-none-eabi/7.3.1/../../../../arm-none-eabi/lib/thumb/v7-m/libstdc++_nano.a(si_class_type_info.o)
 .debug_frame   0x0000000000002a08       0x20 /usr/bin/../lib/gcc/arm-none-eabi/7.3.1/../../../../arm-none-eabi/lib/thumb/v7-m/libstdc++_nano.a(del_ops.o)
 .debug_frame   0x0000000000002a28       0xf0 /usr/bin/../lib/gcc/arm-none-eabi/7.3.1/../../../../arm-none-eabi/lib/thumb/v7-m/libstdc++_nano.a(eh_exception.o)
 .debug_frame   0x0000000000002b18       0x80 /usr/bin/../lib/gcc/arm-none-eabi/7.3.1/../../../../arm-none-eabi/lib/thumb/v7-m/libstdc++_nano.a(tinfo.o)
 .debug_frame   0x0000000000002b98       0xac /usr/bin/../lib/gcc/arm-none-eabi/7.3.1/thumb/v7-m/libgcc.a(_arm_addsubdf3.o)
 .debug_frame   0x0000000000002c44       0x50 /usr/bin/../lib/gcc/arm-none-eabi/7.3.1/thumb/v7-m/libgcc.a(_arm_muldivdf3.o)
 .debug_frame   0x0000000000002c94       0x24 /usr/bin/../lib/gcc/arm-none-eabi/7.3.1/thumb/v7-m/libgcc.a(_arm_fixdfsi.o)
 .debug_frame   0x0000000000002cb8      0x2fc /usr/bin/../lib/gcc/arm-none-eabi/7.3.1/thumb/v7-m/libgcc.a(unwind-arm.o)
 .debug_frame   0x0000000000002fb4      0x104 /usr/bin/../lib/gcc/arm-none-eabi/7.3.1/thumb/v7-m/libgcc.a(pr-support.o)
 .debug_frame   0x00000000000030b8       0x28 /usr/bin/../lib/gcc/arm-none-eabi/7.3.1/../../../../arm-none-eabi/lib/thumb/v7-m/libg_nano.a(lib_a-cxa_atexit.o)
 .debug_frame   0x00000000000030e0       0x20 /usr/bin/../lib/gcc/arm-none-eabi/7.3.1/../../../../arm-none-eabi/lib/thumb/v7-m/libg_nano.a(lib_a-errno.o)
 .debug_frame   0x0000000000003100       0x30 /usr/bin/../lib/gcc/arm-none-eabi/7.3.1/../../../../arm-none-eabi/lib/thumb/v7-m/libg_nano.a(lib_a-malloc.o)
 .debug_frame   0x0000000000003130       0x2c /usr/bin/../lib/gcc/arm-none-eabi/7.3.1/../../../../arm-none-eabi/lib/thumb/v7-m/libg_nano.a(lib_a-memcmp.o)
 .debug_frame   0x000000000000315c       0x28 /usr/bin/../lib/gcc/arm-none-eabi/7.3.1/../../../../arm-none-eabi/lib/thumb/v7-m/libg_nano.a(lib_a-memcpy-stub.o)
 .debug_frame   0x0000000000003184       0x38 /usr/bin/../lib/gcc/arm-none-eabi/7.3.1/../../../../arm-none-eabi/lib/thumb/v7-m/libg_nano.a(lib_a-nano-freer.o)
 .debug_frame   0x00000000000031bc       0x2c /usr/bin/../lib/gcc/arm-none-eabi/7.3.1/../../../../arm-none-eabi/lib/thumb/v7-m/libg_nano.a(lib_a-nano-mallocr.o)
 .debug_frame   0x00000000000031e8       0x48 /usr/bin/../lib/gcc/arm-none-eabi/7.3.1/../../../../arm-none-eabi/lib/thumb/v7-m/libg_nano.a(lib_a-rand.o)
 .debug_frame   0x0000000000003230       0x2c /usr/bin/../lib/gcc/arm-none-eabi/7.3.1/../../../../arm-none-eabi/lib/thumb/v7-m/libg_nano.a(lib_a-sbrkr.o)
 .debug_frame   0x000000000000325c       0x20 /usr/bin/../lib/gcc/arm-none-eabi/7.3.1/../../../../arm-none-eabi/lib/thumb/v7-m/libg_nano.a(lib_a-strcmp.o)
 .debug_frame   0x000000000000327c       0x20 /usr/bin/../lib/gcc/arm-none-eabi/7.3.1/../../../../arm-none-eabi/lib/thumb/v7-m/libg_nano.a(lib_a-strcpy.o)
 .debug_frame   0x000000000000329c       0x4c /usr/bin/../lib/gcc/arm-none-eabi/7.3.1/../../../../arm-none-eabi/lib/thumb/v7-m/libg_nano.a(lib_a-vsnprintf.o)
 .debug_frame   0x00000000000032e8       0x30 /usr/bin/../lib/gcc/arm-none-eabi/7.3.1/../../../../arm-none-eabi/lib/thumb/v7-m/libg_nano.a(lib_a-mlock.o)
 .debug_frame   0x0000000000003318       0x90 /usr/bin/../lib/gcc/arm-none-eabi/7.3.1/../../../../arm-none-eabi/lib/thumb/v7-m/libg_nano.a(lib_a-nano-svfprintf.o)
 .debug_frame   0x00000000000033a8       0x60 /usr/bin/../lib/gcc/arm-none-eabi/7.3.1/../../../../arm-none-eabi/lib/thumb/v7-m/libg_nano.a(lib_a-nano-vfprintf_i.o)
 .debug_frame   0x0000000000003408       0x28 /usr/bin/../lib/gcc/arm-none-eabi/7.3.1/../../../../arm-none-eabi/lib/thumb/v7-m/libg_nano.a(lib_a-memchr-stub.o)
 .debug_frame   0x0000000000003430       0x28 /usr/bin/../lib/gcc/arm-none-eabi/7.3.1/../../../../arm-none-eabi/lib/thumb/v7-m/libg_nano.a(lib_a-memmove.o)
 .debug_frame   0x0000000000003458       0x3c /usr/bin/../lib/gcc/arm-none-eabi/7.3.1/../../../../arm-none-eabi/lib/thumb/v7-m/libg_nano.a(lib_a-nano-reallocr.o)
 .debug_frame   0x0000000000003494       0x20 /usr/bin/../lib/gcc/arm-none-eabi/7.3.1/../../../../arm-none-eabi/lib/thumb/v7-m/libg_nano.a(lib_a-nano-msizer.o)

.debug_str      0x0000000000000000    0x2caf2
 *(.debug_str)
 .debug_str     0x0000000000000000    0x19335 obj/blink_app.o
                                      0x197be (size before relaxing)
 .debug_str     0x0000000000019335       0x3f obj/main.o
                                      0x188fb (size before relaxing)
 .debug_str     0x0000000000019374     0x47de obj/common.o
                                      0x19e8b (size before relaxing)
 .debug_str     0x000000000001db52      0xe03 obj/scheduler.o
                                      0x17cc9 (size before relaxing)
 .debug_str     0x000000000001e955      0xb25 obj/task.o
                                      0x17ed3 (size before relaxing)
 .debug_str     0x000000000001f47a       0x47 obj/version.o
                                       0x301e (size before relaxing)
 .debug_str     0x000000000001f4c1      0x289 obj/application.o
                                      0x17bc1 (size before relaxing)
 .debug_str     0x000000000001f74a      0x157 obj/event.o
                                      0x16c69 (size before relaxing)
 .debug_str     0x000000000001f8a1      0x643 obj/buffer.o
                                       0x7d11 (size before relaxing)
 .debug_str     0x000000000001fee4      0x9be obj/memory_management_operators.o
                                      0x17109 (size before relaxing)
 .debug_str     0x00000000000208a2      0x1f3 obj/memory_manager.o
                                      0x19629 (size before relaxing)
 .debug_str     0x0000000000020a95       0x2f obj/profiler.o
                                       0x3191 (size before relaxing)
 .debug_str     0x0000000000020ac4      0x212 obj/semaphore.o
                                      0x16d2e (size before relaxing)
 .debug_str     0x0000000000020cd6      0x290 obj/mutex.o
                                      0x1748a (size before relaxing)
 .debug_str     0x0000000000020f66       0x33 obj/critical_section.o
                                      0x14dbc (size before relaxing)
 .debug_str     0x0000000000020f99       0x9f obj/_cxx.o
                                       0x89d5 (size before relaxing)
 .debug_str     0x0000000000021038       0x33 obj/timer.o
                                       0x31a6 (size before relaxing)
 .debug_str     0x000000000002106b       0x34 obj/system.o
                                      0x15868 (size before relaxing)
 .debug_str     0x000000000002109f      0x5dc obj/cortex_m.o
                                      0x1703d (size before relaxing)
 .debug_str     0x000000000002167b      0x1bf obj/vectors.o
                                       0x3c00 (size before relaxing)
 .debug_str     0x000000000002183a      0x4dc obj/exception_handlers.o
                                       0xb072 (size before relaxing)
 .debug_str     0x0000000000021d16       0x96 obj/initialize_hardware.o
                                       0x81a8 (size before relaxing)
 .debug_str     0x0000000000021dac       0x55 obj/reset_hardware.o
                                       0x816e (size before relaxing)
 .debug_str     0x0000000000021e01      0x18b obj/startup.o
                                       0x66f2 (size before relaxing)
 .debug_str     0x0000000000021f8c     0x1237 obj/_syscalls.o
                                       0x8266 (size before relaxing)
 .debug_str     0x00000000000231c3       0x42 obj/_exit.o
                                       0x604f (size before relaxing)
 .debug_str     0x0000000000023205       0x94 obj/_sbrk.o
                                       0x70ed (size before relaxing)
 .debug_str     0x0000000000023299       0xec obj/system_MDR32F9Qx.o
                                      0x11a0e (size before relaxing)
 .debug_str     0x0000000000023385     0x2896 obj/MDR32F9Qx_adc.o
                                      0x1421d (size before relaxing)
 .debug_str     0x0000000000025c1b      0x145 obj/MDR32F9Qx_port.o
                                      0x1260b (size before relaxing)
 .debug_str     0x0000000000025d60      0xe1c obj/MDR32F9Qx_rst_clk.o
                                      0x154bc (size before relaxing)
 .debug_str     0x0000000000026b7c     0x3d1a obj/MDR32F9Qx_timer.o
                                      0x157c9 (size before relaxing)
 .debug_str     0x000000000002a896     0x173a obj/MDR32F9Qx_uart.o
                                      0x15e29 (size before relaxing)
 .debug_str     0x000000000002bfd0      0x9b7 obj/MDR32F9Qx_ebc.o
                                      0x122f4 (size before relaxing)
 .debug_str     0x000000000002c987       0x4f obj/svc_handler.o
                                         0x87 (size before relaxing)
 .debug_str     0x000000000002c9d6       0x48 obj/hard_fault_handler.o
                                         0x8e (size before relaxing)
 .debug_str     0x000000000002ca1e       0x47 obj/mpu_fault_handler.o
                                         0x8d (size before relaxing)
 .debug_str     0x000000000002ca65       0x49 obj/svc_exec_privileged.o
                                         0x8f (size before relaxing)
 .debug_str     0x000000000002caae       0x44 obj/pendsv_handler.o
                                         0x8a (size before relaxing)

.debug_loc      0x0000000000000000     0x87df
 *(.debug_loc)
 .debug_loc     0x0000000000000000      0x334 obj/blink_app.o
 .debug_loc     0x0000000000000334       0x39 obj/main.o
 .debug_loc     0x000000000000036d      0x7bf obj/common.o
 .debug_loc     0x0000000000000b2c     0x1dbf obj/scheduler.o
 .debug_loc     0x00000000000028eb     0x117c obj/task.o
 .debug_loc     0x0000000000003a67      0x102 obj/application.o
 .debug_loc     0x0000000000003b69      0x271 obj/event.o
 .debug_loc     0x0000000000003dda      0x898 obj/buffer.o
 .debug_loc     0x0000000000004672      0x108 obj/memory_management_operators.o
 .debug_loc     0x000000000000477a      0x338 obj/memory_manager.o
 .debug_loc     0x0000000000004ab2      0x345 obj/semaphore.o
 .debug_loc     0x0000000000004df7      0x71c obj/mutex.o
 .debug_loc     0x0000000000005513      0x677 obj/cortex_m.o
 .debug_loc     0x0000000000005b8a      0x193 obj/startup.o
 .debug_loc     0x0000000000005d1d      0x549 obj/_syscalls.o
 .debug_loc     0x0000000000006266       0x21 obj/_exit.o
 .debug_loc     0x0000000000006287       0x85 obj/_sbrk.o
 .debug_loc     0x000000000000630c       0x8f obj/system_MDR32F9Qx.o
 .debug_loc     0x000000000000639b      0x621 obj/MDR32F9Qx_adc.o
 .debug_loc     0x00000000000069bc      0x332 obj/MDR32F9Qx_port.o
 .debug_loc     0x0000000000006cee      0x72e obj/MDR32F9Qx_rst_clk.o
 .debug_loc     0x000000000000741c      0xe71 obj/MDR32F9Qx_timer.o
 .debug_loc     0x000000000000828d      0x3e8 obj/MDR32F9Qx_uart.o
 .debug_loc     0x0000000000008675      0x16a obj/MDR32F9Qx_ebc.o

.debug_macinfo
 *(.debug_macinfo)

.debug_weaknames
 *(.debug_weaknames)

.debug_funcnames
 *(.debug_funcnames)

.debug_typenames
 *(.debug_typenames)

.debug_varnames
 *(.debug_varnames)
OUTPUT(1986BE92_blink.elf elf32-littlearm)

.debug_ranges   0x0000000000000000      0xab8
 .debug_ranges  0x0000000000000000       0x68 obj/blink_app.o
 .debug_ranges  0x0000000000000068       0xa8 obj/common.o
 .debug_ranges  0x0000000000000110      0x548 obj/scheduler.o
 .debug_ranges  0x0000000000000658       0x68 obj/task.o
 .debug_ranges  0x00000000000006c0       0x18 obj/application.o
 .debug_ranges  0x00000000000006d8       0x78 obj/event.o
 .debug_ranges  0x0000000000000750       0x78 obj/buffer.o
 .debug_ranges  0x00000000000007c8       0xc0 obj/memory_manager.o
 .debug_ranges  0x0000000000000888       0xa8 obj/semaphore.o
 .debug_ranges  0x0000000000000930       0x90 obj/mutex.o
 .debug_ranges  0x00000000000009c0       0x48 obj/cortex_m.o
 .debug_ranges  0x0000000000000a08       0x10 obj/vectors.o
 .debug_ranges  0x0000000000000a18       0x70 obj/exception_handlers.o
 .debug_ranges  0x0000000000000a88       0x30 obj/startup.o

.debug_macro    0x0000000000000000     0xd20a
 .debug_macro   0x0000000000000000      0x267 obj/blink_app.o
 .debug_macro   0x0000000000000267      0xb26 obj/blink_app.o
 .debug_macro   0x0000000000000d8d       0x1c obj/blink_app.o
 .debug_macro   0x0000000000000da9       0x22 obj/blink_app.o
 .debug_macro   0x0000000000000dcb       0x8e obj/blink_app.o
 .debug_macro   0x0000000000000e59       0x51 obj/blink_app.o
 .debug_macro   0x0000000000000eaa       0xef obj/blink_app.o
 .debug_macro   0x0000000000000f99       0x6a obj/blink_app.o
 .debug_macro   0x0000000000001003      0x1df obj/blink_app.o
 .debug_macro   0x00000000000011e2       0x5e obj/blink_app.o
 .debug_macro   0x0000000000001240      0x17b obj/blink_app.o
 .debug_macro   0x00000000000013bb      0x353 obj/blink_app.o
 .debug_macro   0x000000000000170e       0x25 obj/blink_app.o
 .debug_macro   0x0000000000001733       0xee obj/blink_app.o
 .debug_macro   0x0000000000001821       0x18 obj/blink_app.o
 .debug_macro   0x0000000000001839       0x35 obj/blink_app.o
 .debug_macro   0x000000000000186e       0x34 obj/blink_app.o
 .debug_macro   0x00000000000018a2       0x58 obj/blink_app.o
 .debug_macro   0x00000000000018fa       0x1f obj/blink_app.o
 .debug_macro   0x0000000000001919       0x43 obj/blink_app.o
 .debug_macro   0x000000000000195c       0x20 obj/blink_app.o
 .debug_macro   0x000000000000197c      0x18e obj/blink_app.o
 .debug_macro   0x0000000000001b0a       0x10 obj/blink_app.o
 .debug_macro   0x0000000000001b1a       0x35 obj/blink_app.o
 .debug_macro   0x0000000000001b4f       0x16 obj/blink_app.o
 .debug_macro   0x0000000000001b65       0x58 obj/blink_app.o
 .debug_macro   0x0000000000001bbd       0x22 obj/blink_app.o
 .debug_macro   0x0000000000001bdf       0x29 obj/blink_app.o
 .debug_macro   0x0000000000001c08       0x10 obj/blink_app.o
 .debug_macro   0x0000000000001c18       0xc4 obj/blink_app.o
 .debug_macro   0x0000000000001cdc       0x22 obj/blink_app.o
 .debug_macro   0x0000000000001cfe       0x3b obj/blink_app.o
 .debug_macro   0x0000000000001d39       0x34 obj/blink_app.o
 .debug_macro   0x0000000000001d6d      0xcb4 obj/blink_app.o
 .debug_macro   0x0000000000002a21     0x1dde obj/blink_app.o
 .debug_macro   0x00000000000047ff       0x9e obj/blink_app.o
 .debug_macro   0x000000000000489d       0xed obj/blink_app.o
 .debug_macro   0x000000000000498a      0x542 obj/blink_app.o
 .debug_macro   0x0000000000004ecc       0x16 obj/blink_app.o
 .debug_macro   0x0000000000004ee2       0x2e obj/blink_app.o
 .debug_macro   0x0000000000004f10       0x19 obj/blink_app.o
 .debug_macro   0x0000000000004f29      0x231 obj/main.o
 .debug_macro   0x000000000000515a      0x35a obj/common.o
 .debug_macro   0x00000000000054b4      0x168 obj/common.o
 .debug_macro   0x000000000000561c       0x10 obj/common.o
 .debug_macro   0x000000000000562c      0x3f4 obj/common.o
 .debug_macro   0x0000000000005a20       0x10 obj/common.o
 .debug_macro   0x0000000000005a30       0x58 obj/common.o
 .debug_macro   0x0000000000005a88       0x94 obj/common.o
 .debug_macro   0x0000000000005b1c       0x16 obj/common.o
 .debug_macro   0x0000000000005b32      0x10e obj/common.o
 .debug_macro   0x0000000000005c40       0x94 obj/common.o
 .debug_macro   0x0000000000005cd4       0x57 obj/common.o
 .debug_macro   0x0000000000005d2b       0x16 obj/common.o
 .debug_macro   0x0000000000005d41       0x29 obj/common.o
 .debug_macro   0x0000000000005d6a       0x1c obj/common.o
 .debug_macro   0x0000000000005d86       0xde obj/common.o
 .debug_macro   0x0000000000005e64       0x58 obj/common.o
 .debug_macro   0x0000000000005ebc       0x1c obj/common.o
 .debug_macro   0x0000000000005ed8       0x10 obj/common.o
 .debug_macro   0x0000000000005ee8       0x1c obj/common.o
 .debug_macro   0x0000000000005f04       0x52 obj/common.o
 .debug_macro   0x0000000000005f56       0x40 obj/common.o
 .debug_macro   0x0000000000005f96       0x10 obj/common.o
 .debug_macro   0x0000000000005fa6       0x40 obj/common.o
 .debug_macro   0x0000000000005fe6       0xd7 obj/common.o
 .debug_macro   0x00000000000060bd       0x1c obj/common.o
 .debug_macro   0x00000000000060d9       0x3d obj/common.o
 .debug_macro   0x0000000000006116       0x16 obj/common.o
 .debug_macro   0x000000000000612c      0x137 obj/common.o
 .debug_macro   0x0000000000006263       0x2b obj/common.o
 .debug_macro   0x000000000000628e       0x16 obj/common.o
 .debug_macro   0x00000000000062a4      0x248 obj/scheduler.o
 .debug_macro   0x00000000000064ec       0x20 obj/scheduler.o
 .debug_macro   0x000000000000650c      0x223 obj/task.o
 .debug_macro   0x000000000000672f       0x11 obj/version.o
 .debug_macro   0x0000000000006740      0x2dc obj/application.o
 .debug_macro   0x0000000000006a1c       0x16 obj/application.o
 .debug_macro   0x0000000000006a32       0x97 obj/application.o
 .debug_macro   0x0000000000006ac9      0x104 obj/application.o
 .debug_macro   0x0000000000006bcd       0x10 obj/application.o
 .debug_macro   0x0000000000006bdd      0x227 obj/event.o
 .debug_macro   0x0000000000006e04      0x194 obj/buffer.o
 .debug_macro   0x0000000000006f98      0x2e3 obj/memory_management_operators.o
 .debug_macro   0x000000000000727b       0x1c obj/memory_management_operators.o
 .debug_macro   0x0000000000007297       0x10 obj/memory_management_operators.o
 .debug_macro   0x00000000000072a7       0x28 obj/memory_management_operators.o
 .debug_macro   0x00000000000072cf       0x2d obj/memory_management_operators.o
 .debug_macro   0x00000000000072fc       0x12 obj/memory_management_operators.o
 .debug_macro   0x000000000000730e      0x35c obj/memory_manager.o
 .debug_macro   0x000000000000766a       0x27 obj/profiler.o
 .debug_macro   0x0000000000007691      0x227 obj/semaphore.o
 .debug_macro   0x00000000000078b8      0x227 obj/mutex.o
 .debug_macro   0x0000000000007adf      0x206 obj/critical_section.o
 .debug_macro   0x0000000000007ce5      0x1c9 obj/_cxx.o
 .debug_macro   0x0000000000007eae       0x2d obj/timer.o
 .debug_macro   0x0000000000007edb      0x1fe obj/system.o
 .debug_macro   0x00000000000080d9      0x223 obj/cortex_m.o
 .debug_macro   0x00000000000082fc       0x67 obj/vectors.o
 .debug_macro   0x0000000000008363      0xa66 obj/vectors.o
 .debug_macro   0x0000000000008dc9      0x179 obj/exception_handlers.o
 .debug_macro   0x0000000000008f42       0x2b obj/exception_handlers.o
 .debug_macro   0x0000000000008f6d      0xb80 obj/exception_handlers.o
 .debug_macro   0x0000000000009aed       0x43 obj/exception_handlers.o
 .debug_macro   0x0000000000009b30       0x34 obj/exception_handlers.o
 .debug_macro   0x0000000000009b64      0x174 obj/exception_handlers.o
 .debug_macro   0x0000000000009cd8       0x43 obj/exception_handlers.o
 .debug_macro   0x0000000000009d1b      0x330 obj/exception_handlers.o
 .debug_macro   0x000000000000a04b       0x35 obj/exception_handlers.o
 .debug_macro   0x000000000000a080       0xba obj/initialize_hardware.o
 .debug_macro   0x000000000000a13a       0x35 obj/initialize_hardware.o
 .debug_macro   0x000000000000a16f       0xba obj/reset_hardware.o
 .debug_macro   0x000000000000a229      0x16c obj/startup.o
 .debug_macro   0x000000000000a395      0x217 obj/_syscalls.o
 .debug_macro   0x000000000000a5ac       0x1c obj/_syscalls.o
 .debug_macro   0x000000000000a5c8       0x10 obj/_syscalls.o
 .debug_macro   0x000000000000a5d8      0x23b obj/_syscalls.o
 .debug_macro   0x000000000000a813       0x10 obj/_syscalls.o
 .debug_macro   0x000000000000a823       0x10 obj/_syscalls.o
 .debug_macro   0x000000000000a833       0x10 obj/_syscalls.o
 .debug_macro   0x000000000000a843       0x35 obj/_syscalls.o
 .debug_macro   0x000000000000a878      0x122 obj/_syscalls.o
 .debug_macro   0x000000000000a99a       0x88 obj/_syscalls.o
 .debug_macro   0x000000000000aa22      0x118 obj/_syscalls.o
 .debug_macro   0x000000000000ab3a      0x189 obj/_syscalls.o
 .debug_macro   0x000000000000acc3       0x16 obj/_syscalls.o
 .debug_macro   0x000000000000acd9       0xf6 obj/_exit.o
 .debug_macro   0x000000000000adcf      0x10e obj/_exit.o
 .debug_macro   0x000000000000aedd       0x8d obj/_exit.o
 .debug_macro   0x000000000000af6a      0x169 obj/_sbrk.o
 .debug_macro   0x000000000000b0d3       0xcf obj/system_MDR32F9Qx.o
 .debug_macro   0x000000000000b1a2      0xcb4 obj/system_MDR32F9Qx.o
 .debug_macro   0x000000000000be56       0xa4 obj/system_MDR32F9Qx.o
 .debug_macro   0x000000000000befa       0xde obj/MDR32F9Qx_adc.o
 .debug_macro   0x000000000000bfd8      0x32f obj/MDR32F9Qx_adc.o
 .debug_macro   0x000000000000c307       0xde obj/MDR32F9Qx_port.o
 .debug_macro   0x000000000000c3e5       0xf3 obj/MDR32F9Qx_port.o
 .debug_macro   0x000000000000c4d8      0x259 obj/MDR32F9Qx_rst_clk.o
 .debug_macro   0x000000000000c731       0xde obj/MDR32F9Qx_timer.o
 .debug_macro   0x000000000000c80f      0x424 obj/MDR32F9Qx_timer.o
 .debug_macro   0x000000000000cc33      0x135 obj/MDR32F9Qx_uart.o
 .debug_macro   0x000000000000cd68      0x262 obj/MDR32F9Qx_uart.o
 .debug_macro   0x000000000000cfca       0xfc obj/MDR32F9Qx_ebc.o
 .debug_macro   0x000000000000d0c6      0x144 obj/MDR32F9Qx_ebc.o
